SF:/Users/jmagady/Dev/tally/src/cli/handlers.rs
FN:949,_RNvNtNtCsfSTr4xOiCzA_5tally3cli8handlers10export_csv
FN:581,_RNvNtNtCsfSTr4xOiCzA_5tally3cli8handlers10parse_tags
FN:23,_RNvNtNtCsfSTr4xOiCzA_5tally3cli8handlers11handle_init
FN:443,_RNvNtNtCsfSTr4xOiCzA_5tally3cli8handlers11handle_sync
FN:810,_RNvNtNtCsfSTr4xOiCzA_5tally3cli8handlers11print_table
FN:975,_RNvNtNtCsfSTr4xOiCzA_5tally3cli8handlers12export_sarif
FN:590,_RNvNtNtCsfSTr4xOiCzA_5tally3cli8handlers12handle_dedup
FN:120,_RNvNtNtCsfSTr4xOiCzA_5tally3cli8handlers12handle_query
FN:315,_RNvNtNtCsfSTr4xOiCzA_5tally3cli8handlers12handle_stats
FN:412,_RNvNtNtCsfSTr4xOiCzA_5tally3cli8handlers13handle_export
FN:457,_RNvNtNtCsfSTr4xOiCzA_5tally3cli8handlers13handle_import
FN:54,_RNvNtNtCsfSTr4xOiCzA_5tally3cli8handlers13handle_record
FN:194,_RNvNtNtCsfSTr4xOiCzA_5tally3cli8handlers13handle_update
FN:845,_RNvNtNtCsfSTr4xOiCzA_5tally3cli8handlers13print_summary
FN:650,_RNvNtNtCsfSTr4xOiCzA_5tally3cli8handlers14create_finding
FN:253,_RNvNtNtCsfSTr4xOiCzA_5tally3cli8handlers15handle_suppress
FN:693,_RNvNtNtCsfSTr4xOiCzA_5tally3cli8handlers16add_relationship
FN:867,_RNvNtNtCsfSTr4xOiCzA_5tally3cli8handlers18process_batch_line
FN:509,_RNvNtNtCsfSTr4xOiCzA_5tally3cli8handlers18resolve_finding_id
FN:355,_RNvNtNtCsfSTr4xOiCzA_5tally3cli8handlers19handle_record_batch
FN:734,_RNvNtNtCsfSTr4xOiCzA_5tally3cli8handlers19parse_location_flag
FN:774,_RNvNtNtCsfSTr4xOiCzA_5tally3cli8handlers19parse_location_role
FN:242,_RNvNtNtCsfSTr4xOiCzA_5tally3cli8handlers20handle_rebuild_index
FN:1045,_RNvNtNtCsfSTr4xOiCzA_5tally3cli8handlers21import_single_finding
FN:561,_RNvNtNtCsfSTr4xOiCzA_5tally3cli8handlers22parse_suppression_type
FN:531,_RNvNtNtCsfSTr4xOiCzA_5tally3cli8handlers23check_expiry_and_reopen
FN:711,_RNvNtNtCsfSTr4xOiCzA_5tally3cli8handlers25add_explicit_relationship
FN:791,_RNvNtNtCsfSTr4xOiCzA_5tally3cli8handlers25print_json_with_short_ids
FN:785,_RINvNtNtCsfSTr4xOiCzA_5tally3cli8handlers10print_jsonINtNtCs5bkkNO3hTYU_5alloc3vec3VecNtNvB2_25print_json_with_short_ids18FindingWithShortIdEEB6_
FN:785,_RINvNtNtCsfSTr4xOiCzA_5tally3cli8handlers10print_jsonNtNtCslPnXPM7nwZs_10serde_json5value5ValueEB6_
FN:1002,_RNCNCNvNtNtCsfSTr4xOiCzA_5tally3cli8handlers12export_sarifs1_00B9_
FN:1020,_RNCNCNvNtNtCsfSTr4xOiCzA_5tally3cli8handlers12export_sarifs1_0s_0B9_
FN:146,_RNCNCNvNtNtCsfSTr4xOiCzA_5tally3cli8handlers12handle_querys0_00B9_
FN:156,_RNCNCNvNtNtCsfSTr4xOiCzA_5tally3cli8handlers12handle_querys2_00B9_
FN:474,_RNCNCNvNtNtCsfSTr4xOiCzA_5tally3cli8handlers13handle_imports0_00B9_
FN:476,_RNCNCNvNtNtCsfSTr4xOiCzA_5tally3cli8handlers13handle_imports0_0s0_0B9_
FN:477,_RNCNCNvNtNtCsfSTr4xOiCzA_5tally3cli8handlers13handle_imports0_0s1_0B9_
FN:475,_RNCNCNvNtNtCsfSTr4xOiCzA_5tally3cli8handlers13handle_imports0_0s_0B9_
FN:276,_RNCNCNvNtNtCsfSTr4xOiCzA_5tally3cli8handlers15handle_suppress00B9_
FN:955,_RNCNvNtNtCsfSTr4xOiCzA_5tally3cli8handlers10export_csv0B7_
FN:585,_RNCNvNtNtCsfSTr4xOiCzA_5tally3cli8handlers10parse_tags0B7_
FN:827,_RNCNvNtNtCsfSTr4xOiCzA_5tally3cli8handlers11print_table0B7_
FN:991,_RNCNvNtNtCsfSTr4xOiCzA_5tally3cli8handlers12export_sarifs0_0B7_
FN:998,_RNCNvNtNtCsfSTr4xOiCzA_5tally3cli8handlers12export_sarifs1_0B7_
FN:981,_RNCNvNtNtCsfSTr4xOiCzA_5tally3cli8handlers12export_sarifs_0B7_
FN:595,_RNCNvNtNtCsfSTr4xOiCzA_5tally3cli8handlers12handle_dedup0B7_
FN:621,_RNCNvNtNtCsfSTr4xOiCzA_5tally3cli8handlers12handle_dedups0_0B7_
FN:622,_RNCNvNtNtCsfSTr4xOiCzA_5tally3cli8handlers12handle_dedups1_0B7_
FN:627,_RNCNvNtNtCsfSTr4xOiCzA_5tally3cli8handlers12handle_dedups2_0B7_
FN:620,_RNCNvNtNtCsfSTr4xOiCzA_5tally3cli8handlers12handle_dedups_0B7_
FN:137,_RNCNvNtNtCsfSTr4xOiCzA_5tally3cli8handlers12handle_query0B7_
FN:146,_RNCNvNtNtCsfSTr4xOiCzA_5tally3cli8handlers12handle_querys0_0B7_
FN:149,_RNCNvNtNtCsfSTr4xOiCzA_5tally3cli8handlers12handle_querys1_0B7_
FN:153,_RNCNvNtNtCsfSTr4xOiCzA_5tally3cli8handlers12handle_querys2_0B7_
FN:142,_RNCNvNtNtCsfSTr4xOiCzA_5tally3cli8handlers12handle_querys_0B7_
FN:468,_RNCNvNtNtCsfSTr4xOiCzA_5tally3cli8handlers13handle_import0B7_
FN:471,_RNCNvNtNtCsfSTr4xOiCzA_5tally3cli8handlers13handle_imports0_0B7_
FN:469,_RNCNvNtNtCsfSTr4xOiCzA_5tally3cli8handlers13handle_imports_0B7_
FN:58,_RNCNvNtNtCsfSTr4xOiCzA_5tally3cli8handlers13handle_record0B7_
FN:199,_RNCNvNtNtCsfSTr4xOiCzA_5tally3cli8handlers13handle_update0B7_
FN:274,_RNCNvNtNtCsfSTr4xOiCzA_5tally3cli8handlers15handle_suppress0B7_
FN:304,_RNCNvNtNtCsfSTr4xOiCzA_5tally3cli8handlers15handle_suppresss_0B7_
FN:889,_RNCNvNtNtCsfSTr4xOiCzA_5tally3cli8handlers18process_batch_line0B7_
FN:523,_RNCNvNtNtCsfSTr4xOiCzA_5tally3cli8handlers18resolve_finding_id0B7_
FN:739,_RNCNvNtNtCsfSTr4xOiCzA_5tally3cli8handlers19parse_location_flag0B7_
FN:756,_RNCNvNtNtCsfSTr4xOiCzA_5tally3cli8handlers19parse_location_flags0_0B7_
FN:753,_RNCNvNtNtCsfSTr4xOiCzA_5tally3cli8handlers19parse_location_flags_0B7_
FN:1048,_RNCNvNtNtCsfSTr4xOiCzA_5tally3cli8handlers21import_single_finding0B7_
FN:1056,_RNCNvNtNtCsfSTr4xOiCzA_5tally3cli8handlers21import_single_findings0_0B7_
FN:1057,_RNCNvNtNtCsfSTr4xOiCzA_5tally3cli8handlers21import_single_findings1_0B7_
FN:1059,_RNCNvNtNtCsfSTr4xOiCzA_5tally3cli8handlers21import_single_findings2_0B7_
FN:1063,_RNCNvNtNtCsfSTr4xOiCzA_5tally3cli8handlers21import_single_findings3_0B7_
FN:1070,_RNCNvNtNtCsfSTr4xOiCzA_5tally3cli8handlers21import_single_findings4_0B7_
FN:1083,_RNCNvNtNtCsfSTr4xOiCzA_5tally3cli8handlers21import_single_findings5_0B7_
FN:1092,_RNCNvNtNtCsfSTr4xOiCzA_5tally3cli8handlers21import_single_findings6_0B7_
FN:1131,_RNCNvNtNtCsfSTr4xOiCzA_5tally3cli8handlers21import_single_findings7_0B7_
FN:1052,_RNCNvNtNtCsfSTr4xOiCzA_5tally3cli8handlers21import_single_findings_0B7_
FN:566,_RNCNvNtNtCsfSTr4xOiCzA_5tally3cli8handlers22parse_suppression_type0B7_
FN:541,_RNCNvNtNtCsfSTr4xOiCzA_5tally3cli8handlers23check_expiry_and_reopens_0B7_
FN:720,_RNCNvNtNtCsfSTr4xOiCzA_5tally3cli8handlers25add_explicit_relationship0B7_
FN:802,_RNCNvNtNtCsfSTr4xOiCzA_5tally3cli8handlers25print_json_with_short_ids0B7_
FN:785,_RINvNtNtCsiNX1mHs4n5r_5tally3cli8handlers10print_jsonpEB6_
FN:1002,_RNCNCNvNtNtCsiNX1mHs4n5r_5tally3cli8handlers12export_sarifs1_00B9_
FN:1020,_RNCNCNvNtNtCsiNX1mHs4n5r_5tally3cli8handlers12export_sarifs1_0s_0B9_
FN:146,_RNCNCNvNtNtCsiNX1mHs4n5r_5tally3cli8handlers12handle_querys0_00B9_
FN:156,_RNCNCNvNtNtCsiNX1mHs4n5r_5tally3cli8handlers12handle_querys2_00B9_
FN:474,_RNCNCNvNtNtCsiNX1mHs4n5r_5tally3cli8handlers13handle_imports0_00B9_
FN:476,_RNCNCNvNtNtCsiNX1mHs4n5r_5tally3cli8handlers13handle_imports0_0s0_0B9_
FN:477,_RNCNCNvNtNtCsiNX1mHs4n5r_5tally3cli8handlers13handle_imports0_0s1_0B9_
FN:475,_RNCNCNvNtNtCsiNX1mHs4n5r_5tally3cli8handlers13handle_imports0_0s_0B9_
FN:276,_RNCNCNvNtNtCsiNX1mHs4n5r_5tally3cli8handlers15handle_suppress00B9_
FN:955,_RNCNvNtNtCsiNX1mHs4n5r_5tally3cli8handlers10export_csv0B7_
FN:585,_RNCNvNtNtCsiNX1mHs4n5r_5tally3cli8handlers10parse_tags0B7_
FN:827,_RNCNvNtNtCsiNX1mHs4n5r_5tally3cli8handlers11print_table0B7_
FN:991,_RNCNvNtNtCsiNX1mHs4n5r_5tally3cli8handlers12export_sarifs0_0B7_
FN:998,_RNCNvNtNtCsiNX1mHs4n5r_5tally3cli8handlers12export_sarifs1_0B7_
FN:981,_RNCNvNtNtCsiNX1mHs4n5r_5tally3cli8handlers12export_sarifs_0B7_
FN:595,_RNCNvNtNtCsiNX1mHs4n5r_5tally3cli8handlers12handle_dedup0B7_
FN:621,_RNCNvNtNtCsiNX1mHs4n5r_5tally3cli8handlers12handle_dedups0_0B7_
FN:622,_RNCNvNtNtCsiNX1mHs4n5r_5tally3cli8handlers12handle_dedups1_0B7_
FN:627,_RNCNvNtNtCsiNX1mHs4n5r_5tally3cli8handlers12handle_dedups2_0B7_
FN:620,_RNCNvNtNtCsiNX1mHs4n5r_5tally3cli8handlers12handle_dedups_0B7_
FN:137,_RNCNvNtNtCsiNX1mHs4n5r_5tally3cli8handlers12handle_query0B7_
FN:146,_RNCNvNtNtCsiNX1mHs4n5r_5tally3cli8handlers12handle_querys0_0B7_
FN:149,_RNCNvNtNtCsiNX1mHs4n5r_5tally3cli8handlers12handle_querys1_0B7_
FN:153,_RNCNvNtNtCsiNX1mHs4n5r_5tally3cli8handlers12handle_querys2_0B7_
FN:142,_RNCNvNtNtCsiNX1mHs4n5r_5tally3cli8handlers12handle_querys_0B7_
FN:468,_RNCNvNtNtCsiNX1mHs4n5r_5tally3cli8handlers13handle_import0B7_
FN:471,_RNCNvNtNtCsiNX1mHs4n5r_5tally3cli8handlers13handle_imports0_0B7_
FN:469,_RNCNvNtNtCsiNX1mHs4n5r_5tally3cli8handlers13handle_imports_0B7_
FN:58,_RNCNvNtNtCsiNX1mHs4n5r_5tally3cli8handlers13handle_record0B7_
FN:199,_RNCNvNtNtCsiNX1mHs4n5r_5tally3cli8handlers13handle_update0B7_
FN:274,_RNCNvNtNtCsiNX1mHs4n5r_5tally3cli8handlers15handle_suppress0B7_
FN:304,_RNCNvNtNtCsiNX1mHs4n5r_5tally3cli8handlers15handle_suppresss_0B7_
FN:889,_RNCNvNtNtCsiNX1mHs4n5r_5tally3cli8handlers18process_batch_line0B7_
FN:523,_RNCNvNtNtCsiNX1mHs4n5r_5tally3cli8handlers18resolve_finding_id0B7_
FN:739,_RNCNvNtNtCsiNX1mHs4n5r_5tally3cli8handlers19parse_location_flag0B7_
FN:756,_RNCNvNtNtCsiNX1mHs4n5r_5tally3cli8handlers19parse_location_flags0_0B7_
FN:753,_RNCNvNtNtCsiNX1mHs4n5r_5tally3cli8handlers19parse_location_flags_0B7_
FN:1048,_RNCNvNtNtCsiNX1mHs4n5r_5tally3cli8handlers21import_single_finding0B7_
FN:1056,_RNCNvNtNtCsiNX1mHs4n5r_5tally3cli8handlers21import_single_findings0_0B7_
FN:1057,_RNCNvNtNtCsiNX1mHs4n5r_5tally3cli8handlers21import_single_findings1_0B7_
FN:1059,_RNCNvNtNtCsiNX1mHs4n5r_5tally3cli8handlers21import_single_findings2_0B7_
FN:1063,_RNCNvNtNtCsiNX1mHs4n5r_5tally3cli8handlers21import_single_findings3_0B7_
FN:1070,_RNCNvNtNtCsiNX1mHs4n5r_5tally3cli8handlers21import_single_findings4_0B7_
FN:1083,_RNCNvNtNtCsiNX1mHs4n5r_5tally3cli8handlers21import_single_findings5_0B7_
FN:1092,_RNCNvNtNtCsiNX1mHs4n5r_5tally3cli8handlers21import_single_findings6_0B7_
FN:1131,_RNCNvNtNtCsiNX1mHs4n5r_5tally3cli8handlers21import_single_findings7_0B7_
FN:1052,_RNCNvNtNtCsiNX1mHs4n5r_5tally3cli8handlers21import_single_findings_0B7_
FN:566,_RNCNvNtNtCsiNX1mHs4n5r_5tally3cli8handlers22parse_suppression_type0B7_
FN:541,_RNCNvNtNtCsiNX1mHs4n5r_5tally3cli8handlers23check_expiry_and_reopens_0B7_
FN:720,_RNCNvNtNtCsiNX1mHs4n5r_5tally3cli8handlers25add_explicit_relationship0B7_
FN:802,_RNCNvNtNtCsiNX1mHs4n5r_5tally3cli8handlers25print_json_with_short_ids0B7_
FN:949,_RNvNtNtCsiNX1mHs4n5r_5tally3cli8handlers10export_csv
FN:581,_RNvNtNtCsiNX1mHs4n5r_5tally3cli8handlers10parse_tags
FN:23,_RNvNtNtCsiNX1mHs4n5r_5tally3cli8handlers11handle_init
FN:443,_RNvNtNtCsiNX1mHs4n5r_5tally3cli8handlers11handle_sync
FN:810,_RNvNtNtCsiNX1mHs4n5r_5tally3cli8handlers11print_table
FN:975,_RNvNtNtCsiNX1mHs4n5r_5tally3cli8handlers12export_sarif
FN:590,_RNvNtNtCsiNX1mHs4n5r_5tally3cli8handlers12handle_dedup
FN:120,_RNvNtNtCsiNX1mHs4n5r_5tally3cli8handlers12handle_query
FN:315,_RNvNtNtCsiNX1mHs4n5r_5tally3cli8handlers12handle_stats
FN:412,_RNvNtNtCsiNX1mHs4n5r_5tally3cli8handlers13handle_export
FN:457,_RNvNtNtCsiNX1mHs4n5r_5tally3cli8handlers13handle_import
FN:54,_RNvNtNtCsiNX1mHs4n5r_5tally3cli8handlers13handle_record
FN:194,_RNvNtNtCsiNX1mHs4n5r_5tally3cli8handlers13handle_update
FN:845,_RNvNtNtCsiNX1mHs4n5r_5tally3cli8handlers13print_summary
FN:650,_RNvNtNtCsiNX1mHs4n5r_5tally3cli8handlers14create_finding
FN:253,_RNvNtNtCsiNX1mHs4n5r_5tally3cli8handlers15handle_suppress
FN:693,_RNvNtNtCsiNX1mHs4n5r_5tally3cli8handlers16add_relationship
FN:867,_RNvNtNtCsiNX1mHs4n5r_5tally3cli8handlers18process_batch_line
FN:509,_RNvNtNtCsiNX1mHs4n5r_5tally3cli8handlers18resolve_finding_id
FN:355,_RNvNtNtCsiNX1mHs4n5r_5tally3cli8handlers19handle_record_batch
FN:734,_RNvNtNtCsiNX1mHs4n5r_5tally3cli8handlers19parse_location_flag
FN:774,_RNvNtNtCsiNX1mHs4n5r_5tally3cli8handlers19parse_location_role
FN:242,_RNvNtNtCsiNX1mHs4n5r_5tally3cli8handlers20handle_rebuild_index
FN:1045,_RNvNtNtCsiNX1mHs4n5r_5tally3cli8handlers21import_single_finding
FN:561,_RNvNtNtCsiNX1mHs4n5r_5tally3cli8handlers22parse_suppression_type
FN:531,_RNvNtNtCsiNX1mHs4n5r_5tally3cli8handlers23check_expiry_and_reopen
FN:711,_RNvNtNtCsiNX1mHs4n5r_5tally3cli8handlers25add_explicit_relationship
FN:791,_RNvNtNtCsiNX1mHs4n5r_5tally3cli8handlers25print_json_with_short_ids
FNDA:1,_RNvNtNtCsfSTr4xOiCzA_5tally3cli8handlers10export_csv
FNDA:55,_RNvNtNtCsfSTr4xOiCzA_5tally3cli8handlers10parse_tags
FNDA:57,_RNvNtNtCsfSTr4xOiCzA_5tally3cli8handlers11handle_init
FNDA:1,_RNvNtNtCsfSTr4xOiCzA_5tally3cli8handlers11handle_sync
FNDA:2,_RNvNtNtCsfSTr4xOiCzA_5tally3cli8handlers11print_table
FNDA:2,_RNvNtNtCsfSTr4xOiCzA_5tally3cli8handlers12export_sarif
FNDA:3,_RNvNtNtCsfSTr4xOiCzA_5tally3cli8handlers12handle_dedup
FNDA:26,_RNvNtNtCsfSTr4xOiCzA_5tally3cli8handlers12handle_query
FNDA:2,_RNvNtNtCsfSTr4xOiCzA_5tally3cli8handlers12handle_stats
FNDA:4,_RNvNtNtCsfSTr4xOiCzA_5tally3cli8handlers13handle_export
FNDA:5,_RNvNtNtCsfSTr4xOiCzA_5tally3cli8handlers13handle_import
FNDA:62,_RNvNtNtCsfSTr4xOiCzA_5tally3cli8handlers13handle_record
FNDA:9,_RNvNtNtCsfSTr4xOiCzA_5tally3cli8handlers13handle_update
FNDA:1,_RNvNtNtCsfSTr4xOiCzA_5tally3cli8handlers13print_summary
FNDA:55,_RNvNtNtCsfSTr4xOiCzA_5tally3cli8handlers14create_finding
FNDA:8,_RNvNtNtCsfSTr4xOiCzA_5tally3cli8handlers15handle_suppress
FNDA:2,_RNvNtNtCsfSTr4xOiCzA_5tally3cli8handlers16add_relationship
FNDA:6,_RNvNtNtCsfSTr4xOiCzA_5tally3cli8handlers18process_batch_line
FNDA:22,_RNvNtNtCsfSTr4xOiCzA_5tally3cli8handlers18resolve_finding_id
FNDA:3,_RNvNtNtCsfSTr4xOiCzA_5tally3cli8handlers19handle_record_batch
FNDA:9,_RNvNtNtCsfSTr4xOiCzA_5tally3cli8handlers19parse_location_flag
FNDA:7,_RNvNtNtCsfSTr4xOiCzA_5tally3cli8handlers19parse_location_role
FNDA:1,_RNvNtNtCsfSTr4xOiCzA_5tally3cli8handlers20handle_rebuild_index
FNDA:9,_RNvNtNtCsfSTr4xOiCzA_5tally3cli8handlers21import_single_finding
FNDA:6,_RNvNtNtCsfSTr4xOiCzA_5tally3cli8handlers22parse_suppression_type
FNDA:26,_RNvNtNtCsfSTr4xOiCzA_5tally3cli8handlers23check_expiry_and_reopen
FNDA:5,_RNvNtNtCsfSTr4xOiCzA_5tally3cli8handlers25add_explicit_relationship
FNDA:23,_RNvNtNtCsfSTr4xOiCzA_5tally3cli8handlers25print_json_with_short_ids
FNDA:23,_RINvNtNtCsfSTr4xOiCzA_5tally3cli8handlers10print_jsonINtNtCs5bkkNO3hTYU_5alloc3vec3VecNtNvB2_25print_json_with_short_ids18FindingWithShortIdEEB6_
FNDA:72,_RINvNtNtCsfSTr4xOiCzA_5tally3cli8handlers10print_jsonNtNtCslPnXPM7nwZs_10serde_json5value5ValueEB6_
FNDA:3,_RNCNCNvNtNtCsfSTr4xOiCzA_5tally3cli8handlers12export_sarifs1_00B9_
FNDA:2,_RNCNCNvNtNtCsfSTr4xOiCzA_5tally3cli8handlers12export_sarifs1_0s_0B9_
FNDA:2,_RNCNCNvNtNtCsfSTr4xOiCzA_5tally3cli8handlers12handle_querys0_00B9_
FNDA:2,_RNCNCNvNtNtCsfSTr4xOiCzA_5tally3cli8handlers12handle_querys2_00B9_
FNDA:1,_RNCNCNvNtNtCsfSTr4xOiCzA_5tally3cli8handlers13handle_imports0_00B9_
FNDA:1,_RNCNCNvNtNtCsfSTr4xOiCzA_5tally3cli8handlers13handle_imports0_0s0_0B9_
FNDA:1,_RNCNCNvNtNtCsfSTr4xOiCzA_5tally3cli8handlers13handle_imports0_0s1_0B9_
FNDA:1,_RNCNCNvNtNtCsfSTr4xOiCzA_5tally3cli8handlers13handle_imports0_0s_0B9_
FNDA:1,_RNCNCNvNtNtCsfSTr4xOiCzA_5tally3cli8handlers15handle_suppress00B9_
FNDA:1,_RNCNvNtNtCsfSTr4xOiCzA_5tally3cli8handlers10export_csv0B7_
FNDA:55,_RNCNvNtNtCsfSTr4xOiCzA_5tally3cli8handlers10parse_tags0B7_
FNDA:2,_RNCNvNtNtCsfSTr4xOiCzA_5tally3cli8handlers11print_table0B7_
FNDA:2,_RNCNvNtNtCsfSTr4xOiCzA_5tally3cli8handlers12export_sarifs0_0B7_
FNDA:2,_RNCNvNtNtCsfSTr4xOiCzA_5tally3cli8handlers12export_sarifs1_0B7_
FNDA:2,_RNCNvNtNtCsfSTr4xOiCzA_5tally3cli8handlers12export_sarifs_0B7_
FNDA:3,_RNCNvNtNtCsfSTr4xOiCzA_5tally3cli8handlers12handle_dedup0B7_
FNDA:0,_RNCNvNtNtCsfSTr4xOiCzA_5tally3cli8handlers12handle_dedups0_0B7_
FNDA:3,_RNCNvNtNtCsfSTr4xOiCzA_5tally3cli8handlers12handle_dedups1_0B7_
FNDA:0,_RNCNvNtNtCsfSTr4xOiCzA_5tally3cli8handlers12handle_dedups2_0B7_
FNDA:3,_RNCNvNtNtCsfSTr4xOiCzA_5tally3cli8handlers12handle_dedups_0B7_
FNDA:1,_RNCNvNtNtCsfSTr4xOiCzA_5tally3cli8handlers12handle_query0B7_
FNDA:2,_RNCNvNtNtCsfSTr4xOiCzA_5tally3cli8handlers12handle_querys0_0B7_
FNDA:0,_RNCNvNtNtCsfSTr4xOiCzA_5tally3cli8handlers12handle_querys1_0B7_
FNDA:5,_RNCNvNtNtCsfSTr4xOiCzA_5tally3cli8handlers12handle_querys2_0B7_
FNDA:3,_RNCNvNtNtCsfSTr4xOiCzA_5tally3cli8handlers12handle_querys_0B7_
FNDA:3,_RNCNvNtNtCsfSTr4xOiCzA_5tally3cli8handlers13handle_import0B7_
FNDA:2,_RNCNvNtNtCsfSTr4xOiCzA_5tally3cli8handlers13handle_imports0_0B7_
FNDA:3,_RNCNvNtNtCsfSTr4xOiCzA_5tally3cli8handlers13handle_imports_0B7_
FNDA:1,_RNCNvNtNtCsfSTr4xOiCzA_5tally3cli8handlers13handle_record0B7_
FNDA:0,_RNCNvNtNtCsfSTr4xOiCzA_5tally3cli8handlers13handle_update0B7_
FNDA:3,_RNCNvNtNtCsfSTr4xOiCzA_5tally3cli8handlers15handle_suppress0B7_
FNDA:2,_RNCNvNtNtCsfSTr4xOiCzA_5tally3cli8handlers15handle_suppresss_0B7_
FNDA:0,_RNCNvNtNtCsfSTr4xOiCzA_5tally3cli8handlers18process_batch_line0B7_
FNDA:0,_RNCNvNtNtCsfSTr4xOiCzA_5tally3cli8handlers18resolve_finding_id0B7_
FNDA:1,_RNCNvNtNtCsfSTr4xOiCzA_5tally3cli8handlers19parse_location_flag0B7_
FNDA:0,_RNCNvNtNtCsfSTr4xOiCzA_5tally3cli8handlers19parse_location_flags0_0B7_
FNDA:0,_RNCNvNtNtCsfSTr4xOiCzA_5tally3cli8handlers19parse_location_flags_0B7_
FNDA:8,_RNCNvNtNtCsfSTr4xOiCzA_5tally3cli8handlers21import_single_finding0B7_
FNDA:8,_RNCNvNtNtCsfSTr4xOiCzA_5tally3cli8handlers21import_single_findings0_0B7_
FNDA:8,_RNCNvNtNtCsfSTr4xOiCzA_5tally3cli8handlers21import_single_findings1_0B7_
FNDA:8,_RNCNvNtNtCsfSTr4xOiCzA_5tally3cli8handlers21import_single_findings2_0B7_
FNDA:5,_RNCNvNtNtCsfSTr4xOiCzA_5tally3cli8handlers21import_single_findings3_0B7_
FNDA:3,_RNCNvNtNtCsfSTr4xOiCzA_5tally3cli8handlers21import_single_findings4_0B7_
FNDA:8,_RNCNvNtNtCsfSTr4xOiCzA_5tally3cli8handlers21import_single_findings5_0B7_
FNDA:2,_RNCNvNtNtCsfSTr4xOiCzA_5tally3cli8handlers21import_single_findings6_0B7_
FNDA:8,_RNCNvNtNtCsfSTr4xOiCzA_5tally3cli8handlers21import_single_findings7_0B7_
FNDA:8,_RNCNvNtNtCsfSTr4xOiCzA_5tally3cli8handlers21import_single_findings_0B7_
FNDA:1,_RNCNvNtNtCsfSTr4xOiCzA_5tally3cli8handlers22parse_suppression_type0B7_
FNDA:1,_RNCNvNtNtCsfSTr4xOiCzA_5tally3cli8handlers23check_expiry_and_reopens_0B7_
FNDA:0,_RNCNvNtNtCsfSTr4xOiCzA_5tally3cli8handlers25add_explicit_relationship0B7_
FNDA:27,_RNCNvNtNtCsfSTr4xOiCzA_5tally3cli8handlers25print_json_with_short_ids0B7_
FNDA:0,_RINvNtNtCsiNX1mHs4n5r_5tally3cli8handlers10print_jsonpEB6_
FNDA:0,_RNCNCNvNtNtCsiNX1mHs4n5r_5tally3cli8handlers12export_sarifs1_00B9_
FNDA:0,_RNCNCNvNtNtCsiNX1mHs4n5r_5tally3cli8handlers12export_sarifs1_0s_0B9_
FNDA:0,_RNCNCNvNtNtCsiNX1mHs4n5r_5tally3cli8handlers12handle_querys0_00B9_
FNDA:0,_RNCNCNvNtNtCsiNX1mHs4n5r_5tally3cli8handlers12handle_querys2_00B9_
FNDA:0,_RNCNCNvNtNtCsiNX1mHs4n5r_5tally3cli8handlers13handle_imports0_00B9_
FNDA:0,_RNCNCNvNtNtCsiNX1mHs4n5r_5tally3cli8handlers13handle_imports0_0s0_0B9_
FNDA:0,_RNCNCNvNtNtCsiNX1mHs4n5r_5tally3cli8handlers13handle_imports0_0s1_0B9_
FNDA:0,_RNCNCNvNtNtCsiNX1mHs4n5r_5tally3cli8handlers13handle_imports0_0s_0B9_
FNDA:0,_RNCNCNvNtNtCsiNX1mHs4n5r_5tally3cli8handlers15handle_suppress00B9_
FNDA:0,_RNCNvNtNtCsiNX1mHs4n5r_5tally3cli8handlers10export_csv0B7_
FNDA:0,_RNCNvNtNtCsiNX1mHs4n5r_5tally3cli8handlers10parse_tags0B7_
FNDA:0,_RNCNvNtNtCsiNX1mHs4n5r_5tally3cli8handlers11print_table0B7_
FNDA:0,_RNCNvNtNtCsiNX1mHs4n5r_5tally3cli8handlers12export_sarifs0_0B7_
FNDA:0,_RNCNvNtNtCsiNX1mHs4n5r_5tally3cli8handlers12export_sarifs1_0B7_
FNDA:0,_RNCNvNtNtCsiNX1mHs4n5r_5tally3cli8handlers12export_sarifs_0B7_
FNDA:0,_RNCNvNtNtCsiNX1mHs4n5r_5tally3cli8handlers12handle_dedup0B7_
FNDA:0,_RNCNvNtNtCsiNX1mHs4n5r_5tally3cli8handlers12handle_dedups0_0B7_
FNDA:0,_RNCNvNtNtCsiNX1mHs4n5r_5tally3cli8handlers12handle_dedups1_0B7_
FNDA:0,_RNCNvNtNtCsiNX1mHs4n5r_5tally3cli8handlers12handle_dedups2_0B7_
FNDA:0,_RNCNvNtNtCsiNX1mHs4n5r_5tally3cli8handlers12handle_dedups_0B7_
FNDA:0,_RNCNvNtNtCsiNX1mHs4n5r_5tally3cli8handlers12handle_query0B7_
FNDA:0,_RNCNvNtNtCsiNX1mHs4n5r_5tally3cli8handlers12handle_querys0_0B7_
FNDA:0,_RNCNvNtNtCsiNX1mHs4n5r_5tally3cli8handlers12handle_querys1_0B7_
FNDA:0,_RNCNvNtNtCsiNX1mHs4n5r_5tally3cli8handlers12handle_querys2_0B7_
FNDA:0,_RNCNvNtNtCsiNX1mHs4n5r_5tally3cli8handlers12handle_querys_0B7_
FNDA:0,_RNCNvNtNtCsiNX1mHs4n5r_5tally3cli8handlers13handle_import0B7_
FNDA:0,_RNCNvNtNtCsiNX1mHs4n5r_5tally3cli8handlers13handle_imports0_0B7_
FNDA:0,_RNCNvNtNtCsiNX1mHs4n5r_5tally3cli8handlers13handle_imports_0B7_
FNDA:0,_RNCNvNtNtCsiNX1mHs4n5r_5tally3cli8handlers13handle_record0B7_
FNDA:0,_RNCNvNtNtCsiNX1mHs4n5r_5tally3cli8handlers13handle_update0B7_
FNDA:0,_RNCNvNtNtCsiNX1mHs4n5r_5tally3cli8handlers15handle_suppress0B7_
FNDA:0,_RNCNvNtNtCsiNX1mHs4n5r_5tally3cli8handlers15handle_suppresss_0B7_
FNDA:0,_RNCNvNtNtCsiNX1mHs4n5r_5tally3cli8handlers18process_batch_line0B7_
FNDA:0,_RNCNvNtNtCsiNX1mHs4n5r_5tally3cli8handlers18resolve_finding_id0B7_
FNDA:0,_RNCNvNtNtCsiNX1mHs4n5r_5tally3cli8handlers19parse_location_flag0B7_
FNDA:0,_RNCNvNtNtCsiNX1mHs4n5r_5tally3cli8handlers19parse_location_flags0_0B7_
FNDA:0,_RNCNvNtNtCsiNX1mHs4n5r_5tally3cli8handlers19parse_location_flags_0B7_
FNDA:0,_RNCNvNtNtCsiNX1mHs4n5r_5tally3cli8handlers21import_single_finding0B7_
FNDA:0,_RNCNvNtNtCsiNX1mHs4n5r_5tally3cli8handlers21import_single_findings0_0B7_
FNDA:0,_RNCNvNtNtCsiNX1mHs4n5r_5tally3cli8handlers21import_single_findings1_0B7_
FNDA:0,_RNCNvNtNtCsiNX1mHs4n5r_5tally3cli8handlers21import_single_findings2_0B7_
FNDA:0,_RNCNvNtNtCsiNX1mHs4n5r_5tally3cli8handlers21import_single_findings3_0B7_
FNDA:0,_RNCNvNtNtCsiNX1mHs4n5r_5tally3cli8handlers21import_single_findings4_0B7_
FNDA:0,_RNCNvNtNtCsiNX1mHs4n5r_5tally3cli8handlers21import_single_findings5_0B7_
FNDA:0,_RNCNvNtNtCsiNX1mHs4n5r_5tally3cli8handlers21import_single_findings6_0B7_
FNDA:0,_RNCNvNtNtCsiNX1mHs4n5r_5tally3cli8handlers21import_single_findings7_0B7_
FNDA:0,_RNCNvNtNtCsiNX1mHs4n5r_5tally3cli8handlers21import_single_findings_0B7_
FNDA:0,_RNCNvNtNtCsiNX1mHs4n5r_5tally3cli8handlers22parse_suppression_type0B7_
FNDA:0,_RNCNvNtNtCsiNX1mHs4n5r_5tally3cli8handlers23check_expiry_and_reopens_0B7_
FNDA:0,_RNCNvNtNtCsiNX1mHs4n5r_5tally3cli8handlers25add_explicit_relationship0B7_
FNDA:0,_RNCNvNtNtCsiNX1mHs4n5r_5tally3cli8handlers25print_json_with_short_ids0B7_
FNDA:0,_RNvNtNtCsiNX1mHs4n5r_5tally3cli8handlers10export_csv
FNDA:0,_RNvNtNtCsiNX1mHs4n5r_5tally3cli8handlers10parse_tags
FNDA:0,_RNvNtNtCsiNX1mHs4n5r_5tally3cli8handlers11handle_init
FNDA:0,_RNvNtNtCsiNX1mHs4n5r_5tally3cli8handlers11handle_sync
FNDA:0,_RNvNtNtCsiNX1mHs4n5r_5tally3cli8handlers11print_table
FNDA:0,_RNvNtNtCsiNX1mHs4n5r_5tally3cli8handlers12export_sarif
FNDA:0,_RNvNtNtCsiNX1mHs4n5r_5tally3cli8handlers12handle_dedup
FNDA:0,_RNvNtNtCsiNX1mHs4n5r_5tally3cli8handlers12handle_query
FNDA:0,_RNvNtNtCsiNX1mHs4n5r_5tally3cli8handlers12handle_stats
FNDA:0,_RNvNtNtCsiNX1mHs4n5r_5tally3cli8handlers13handle_export
FNDA:0,_RNvNtNtCsiNX1mHs4n5r_5tally3cli8handlers13handle_import
FNDA:0,_RNvNtNtCsiNX1mHs4n5r_5tally3cli8handlers13handle_record
FNDA:0,_RNvNtNtCsiNX1mHs4n5r_5tally3cli8handlers13handle_update
FNDA:0,_RNvNtNtCsiNX1mHs4n5r_5tally3cli8handlers13print_summary
FNDA:0,_RNvNtNtCsiNX1mHs4n5r_5tally3cli8handlers14create_finding
FNDA:0,_RNvNtNtCsiNX1mHs4n5r_5tally3cli8handlers15handle_suppress
FNDA:0,_RNvNtNtCsiNX1mHs4n5r_5tally3cli8handlers16add_relationship
FNDA:0,_RNvNtNtCsiNX1mHs4n5r_5tally3cli8handlers18process_batch_line
FNDA:0,_RNvNtNtCsiNX1mHs4n5r_5tally3cli8handlers18resolve_finding_id
FNDA:0,_RNvNtNtCsiNX1mHs4n5r_5tally3cli8handlers19handle_record_batch
FNDA:0,_RNvNtNtCsiNX1mHs4n5r_5tally3cli8handlers19parse_location_flag
FNDA:0,_RNvNtNtCsiNX1mHs4n5r_5tally3cli8handlers19parse_location_role
FNDA:0,_RNvNtNtCsiNX1mHs4n5r_5tally3cli8handlers20handle_rebuild_index
FNDA:0,_RNvNtNtCsiNX1mHs4n5r_5tally3cli8handlers21import_single_finding
FNDA:0,_RNvNtNtCsiNX1mHs4n5r_5tally3cli8handlers22parse_suppression_type
FNDA:0,_RNvNtNtCsiNX1mHs4n5r_5tally3cli8handlers23check_expiry_and_reopen
FNDA:0,_RNvNtNtCsiNX1mHs4n5r_5tally3cli8handlers25add_explicit_relationship
FNDA:0,_RNvNtNtCsiNX1mHs4n5r_5tally3cli8handlers25print_json_with_short_ids
FNF:80
FNH:71
DA:23,57
DA:24,57
DA:25,57
DA:26,57
DA:27,57
DA:54,62
DA:55,62
DA:56,62
DA:57,62
DA:58,62
DA:60,61
DA:61,61
DA:62,61
DA:63,61
DA:64,61
DA:65,61
DA:66,61
DA:69,61
DA:70,61
DA:71,9
DA:74,58
DA:76,58
DA:77,58
DA:78,58
DA:80,58
DA:81,3
DA:82,3
DA:84,2
DA:85,2
DA:86,2
DA:88,2
DA:89,1
DA:90,1
DA:91,2
DA:92,2
DA:93,2
DA:94,2
DA:95,2
DA:96,2
DA:99,53
DA:101,52
DA:102,3
DA:103,49
DA:104,52
DA:105,52
DA:106,52
DA:107,52
DA:111,57
DA:112,62
DA:120,26
DA:121,26
DA:122,26
DA:123,26
DA:124,26
DA:125,26
DA:126,26
DA:127,26
DA:128,26
DA:129,26
DA:130,26
DA:133,26
DA:135,26
DA:136,1
DA:137,1
DA:138,0
DA:139,25
DA:140,26
DA:141,1
DA:142,3
DA:143,0
DA:144,25
DA:145,26
DA:146,2
DA:147,25
DA:148,26
DA:149,0
DA:150,26
DA:151,26
DA:152,2
DA:153,5
DA:154,5
DA:155,5
DA:156,5
DA:157,5
DA:158,0
DA:159,24
DA:161,26
DA:164,26
DA:165,33
DA:166,33
DA:167,33
DA:169,26
DA:170,23
DA:171,2
DA:172,1
DA:175,26
DA:176,26
DA:194,9
DA:195,9
DA:196,9
DA:197,9
DA:198,9
DA:199,9
DA:201,9
DA:203,9
DA:204,1
DA:205,1
DA:206,1
DA:207,1
DA:208,1
DA:209,8
DA:211,8
DA:212,8
DA:213,8
DA:214,8
DA:215,8
DA:216,8
DA:217,8
DA:218,8
DA:219,8
DA:220,8
DA:222,8
DA:225,8
DA:226,1
DA:227,7
DA:229,8
DA:230,8
DA:231,8
DA:232,8
DA:234,8
DA:235,9
DA:242,1
DA:243,1
DA:244,1
DA:245,1
DA:246,1
DA:253,8
DA:254,8
DA:255,8
DA:256,8
DA:257,8
DA:258,8
DA:259,8
DA:260,8
DA:261,8
DA:262,8
DA:263,8
DA:265,8
DA:266,1
DA:267,1
DA:268,1
DA:269,1
DA:270,1
DA:271,7
DA:273,7
DA:274,7
DA:275,3
DA:276,3
DA:277,3
DA:278,7
DA:280,6
DA:281,6
DA:282,6
DA:283,6
DA:284,6
DA:285,6
DA:286,6
DA:287,6
DA:288,6
DA:289,4
DA:290,6
DA:291,4
DA:292,4
DA:293,4
DA:294,4
DA:295,4
DA:296,4
DA:297,4
DA:299,4
DA:301,4
DA:302,4
DA:303,4
DA:304,4
DA:307,4
DA:308,8
DA:315,2
DA:316,2
DA:318,2
DA:319,2
DA:321,2
DA:322,2
DA:323,2
DA:324,2
DA:326,2
DA:327,8
DA:328,2
DA:329,2
DA:330,2
DA:331,2
DA:332,8
DA:333,8
DA:334,8
DA:335,2
DA:336,2
DA:338,20
DA:339,20
DA:340,1
DA:341,1
DA:342,1
DA:343,19
DA:346,2
DA:347,2
DA:355,3
DA:358,3
DA:359,0
DA:361,3
DA:362,3
DA:365,3
DA:366,3
DA:368,3
DA:369,3
DA:370,3
DA:371,3
DA:373,6
DA:374,6
DA:375,6
DA:376,0
DA:377,6
DA:378,6
DA:380,6
DA:381,5
DA:382,5
DA:383,5
DA:384,5
DA:385,1
DA:386,1
DA:387,1
DA:388,1
DA:389,1
DA:390,1
DA:391,1
DA:392,1
DA:396,3
DA:397,3
DA:398,3
DA:399,3
DA:400,3
DA:402,3
DA:404,3
DA:405,3
DA:412,4
DA:413,4
DA:414,4
DA:415,4
DA:416,4
DA:417,4
DA:419,4
DA:421,1
DA:423,1
DA:424,2
DA:427,4
DA:428,1
DA:429,1
DA:430,1
DA:432,3
DA:435,4
DA:436,4
DA:443,1
DA:444,1
DA:445,0
DA:449,0
DA:450,1
DA:457,5
DA:458,5
DA:459,5
DA:460,5
DA:462,5
DA:463,5
DA:466,5
DA:467,5
DA:468,5
DA:469,5
DA:471,5
DA:472,2
DA:473,2
DA:474,2
DA:475,2
DA:476,2
DA:477,2
DA:478,2
DA:480,5
DA:481,1
DA:482,1
DA:485,9
DA:486,9
DA:487,9
DA:488,9
DA:489,9
DA:490,9
DA:491,0
DA:492,0
DA:493,0
DA:494,0
DA:498,4
DA:499,4
DA:500,5
DA:509,22
DA:511,22
DA:512,21
DA:513,1
DA:516,1
DA:517,1
DA:518,1
DA:519,1
DA:520,1
DA:522,1
DA:523,0
DA:524,0
DA:525,22
DA:531,26
DA:532,26
DA:533,38
DA:534,38
DA:535,35
DA:536,3
DA:537,3
DA:538,3
DA:539,3
DA:540,3
DA:541,3
DA:542,3
DA:543,1
DA:544,1
DA:545,1
DA:546,1
DA:547,1
DA:548,1
DA:549,1
DA:550,1
DA:551,1
DA:552,1
DA:553,1
DA:554,1
DA:555,1
DA:556,2
DA:558,26
DA:561,6
DA:562,6
DA:563,6
DA:564,4
DA:565,3
DA:566,2
DA:567,1
DA:568,1
DA:569,1
DA:570,1
DA:571,1
DA:572,1
DA:573,1
DA:575,1
DA:576,1
DA:577,1
DA:579,6
DA:581,55
DA:582,55
DA:583,55
DA:584,55
DA:585,55
DA:586,55
DA:587,55
DA:588,55
DA:590,3
DA:591,3
DA:592,3
DA:593,3
DA:594,3
DA:595,3
DA:597,3
DA:599,3
DA:600,0
DA:601,0
DA:602,0
DA:603,0
DA:604,0
DA:605,0
DA:606,0
DA:607,3
DA:610,3
DA:611,3
DA:612,3
DA:613,3
DA:614,3
DA:615,3
DA:616,3
DA:617,3
DA:618,3
DA:619,3
DA:620,3
DA:621,3
DA:622,3
DA:624,0
DA:625,0
DA:626,0
DA:627,0
DA:628,0
DA:629,0
DA:630,0
DA:631,0
DA:632,0
DA:633,0
DA:634,0
DA:635,0
DA:636,3
DA:638,3
DA:639,0
DA:640,0
DA:641,3
DA:643,3
DA:644,3
DA:645,3
DA:646,3
DA:647,3
DA:648,3
DA:650,55
DA:651,55
DA:652,55
DA:653,55
DA:654,55
DA:655,55
DA:656,55
DA:657,55
DA:658,55
DA:659,55
DA:660,55
DA:661,55
DA:662,55
DA:663,55
DA:664,55
DA:665,55
DA:666,55
DA:667,55
DA:668,55
DA:669,55
DA:670,55
DA:671,55
DA:672,55
DA:673,55
DA:674,55
DA:675,55
DA:676,55
DA:677,55
DA:678,55
DA:679,55
DA:680,55
DA:681,55
DA:682,55
DA:683,55
DA:684,55
DA:685,55
DA:686,55
DA:687,55
DA:689,55
DA:690,54
DA:691,55
DA:693,2
DA:694,2
DA:695,2
DA:696,2
DA:697,2
DA:698,2
DA:699,2
DA:700,2
DA:701,2
DA:702,2
DA:703,2
DA:704,2
DA:705,2
DA:706,2
DA:707,2
DA:708,2
DA:711,5
DA:712,5
DA:713,5
DA:714,5
DA:715,5
DA:716,5
DA:717,5
DA:718,5
DA:719,5
DA:720,5
DA:722,5
DA:723,5
DA:724,5
DA:725,5
DA:726,5
DA:727,5
DA:728,5
DA:729,5
DA:730,5
DA:731,5
DA:734,9
DA:735,9
DA:736,9
DA:739,6
DA:740,1
DA:741,1
DA:742,5
DA:743,4
DA:744,4
DA:745,4
DA:746,4
DA:747,4
DA:748,4
DA:749,4
DA:753,2
DA:754,0
DA:755,0
DA:756,2
DA:757,0
DA:758,0
DA:759,2
DA:760,2
DA:761,2
DA:762,2
DA:763,2
DA:764,2
DA:765,2
DA:766,2
DA:768,1
DA:769,1
DA:770,1
DA:772,9
DA:774,7
DA:775,7
DA:776,7
DA:777,7
DA:778,3
DA:779,1
DA:780,1
DA:781,1
DA:783,7
DA:785,95
DA:786,95
DA:787,95
DA:788,95
DA:789,95
DA:791,23
DA:799,23
DA:800,23
DA:801,23
DA:802,27
DA:803,27
DA:804,27
DA:805,23
DA:807,23
DA:808,23
DA:810,2
DA:811,2
DA:812,0
DA:813,0
DA:814,2
DA:816,2
DA:817,2
DA:818,2
DA:819,2
DA:822,2
DA:823,2
DA:824,2
DA:825,2
DA:826,2
DA:827,2
DA:828,2
DA:829,2
DA:831,2
DA:832,2
DA:833,2
DA:834,2
DA:835,2
DA:836,2
DA:837,2
DA:838,2
DA:842,2
DA:843,2
DA:845,1
DA:846,1
DA:847,4
DA:848,4
DA:849,4
DA:851,1
DA:852,4
DA:853,1
DA:854,1
DA:855,1
DA:856,1
DA:857,1
DA:858,4
DA:859,3
DA:860,3
DA:861,3
DA:862,1
DA:864,1
DA:867,6
DA:868,6
DA:869,6
DA:870,6
DA:871,6
DA:872,6
DA:884,6
DA:886,5
DA:887,5
DA:888,5
DA:889,5
DA:891,5
DA:892,5
DA:893,5
DA:894,5
DA:895,5
DA:896,5
DA:897,5
DA:899,5
DA:900,5
DA:901,5
DA:902,5
DA:903,5
DA:904,5
DA:908,5
DA:909,0
DA:910,0
DA:913,5
DA:914,5
DA:915,5
DA:916,5
DA:917,5
DA:918,5
DA:919,5
DA:920,5
DA:921,5
DA:922,5
DA:923,5
DA:924,5
DA:925,5
DA:926,5
DA:927,5
DA:928,5
DA:929,5
DA:930,5
DA:931,5
DA:932,5
DA:933,5
DA:934,5
DA:935,5
DA:936,5
DA:937,5
DA:938,5
DA:939,5
DA:940,5
DA:941,5
DA:942,5
DA:943,5
DA:944,5
DA:947,6
DA:949,1
DA:951,1
DA:954,1
DA:955,1
DA:956,1
DA:957,1
DA:958,1
DA:959,1
DA:968,1
DA:969,1
DA:972,1
DA:973,1
DA:975,2
DA:976,2
DA:977,2
DA:978,2
DA:979,2
DA:980,2
DA:981,2
DA:982,2
DA:983,2
DA:984,2
DA:986,2
DA:987,2
DA:989,2
DA:990,2
DA:991,2
DA:992,2
DA:993,2
DA:994,2
DA:996,2
DA:997,2
DA:998,2
DA:999,2
DA:1000,2
DA:1001,2
DA:1002,3
DA:1003,3
DA:1004,3
DA:1005,3
DA:1006,3
DA:1007,3
DA:1008,3
DA:1012,3
DA:1013,2
DA:1015,2
DA:1016,2
DA:1017,2
DA:1018,2
DA:1019,2
DA:1020,2
DA:1022,2
DA:1023,2
DA:1025,2
DA:1026,2
DA:1027,2
DA:1028,2
DA:1029,2
DA:1030,2
DA:1031,2
DA:1032,2
DA:1033,2
DA:1034,2
DA:1037,2
DA:1041,2
DA:1042,2
DA:1045,9
DA:1046,9
DA:1047,9
DA:1048,9
DA:1049,9
DA:1050,9
DA:1051,9
DA:1052,9
DA:1053,9
DA:1054,9
DA:1055,9
DA:1056,9
DA:1057,9
DA:1058,9
DA:1059,9
DA:1060,9
DA:1063,9
DA:1064,5
DA:1065,3
DA:1066,1
DA:1067,0
DA:1070,4
DA:1071,4
DA:1072,1
DA:1073,3
DA:1074,1
DA:1077,2
DA:1083,9
DA:1084,8
DA:1085,7
DA:1086,7
DA:1087,8
DA:1090,9
DA:1091,9
DA:1092,9
DA:1093,9
DA:1094,9
DA:1096,9
DA:1097,9
DA:1098,9
DA:1099,9
DA:1100,9
DA:1101,9
DA:1102,9
DA:1104,9
DA:1105,7
DA:1107,2
DA:1110,9
DA:1111,9
DA:1113,9
DA:1114,9
DA:1115,9
DA:1116,9
DA:1117,9
DA:1118,9
DA:1119,9
DA:1120,9
DA:1121,9
DA:1122,9
DA:1123,9
DA:1124,9
DA:1125,9
DA:1126,9
DA:1127,9
DA:1128,9
DA:1129,9
DA:1130,9
DA:1131,9
DA:1133,9
DA:1134,9
DA:1135,9
DA:1136,9
DA:1137,9
DA:1138,9
DA:1139,9
DA:1140,9
DA:1143,9
DA:1144,9
DA:1145,9
BRF:0
BRH:0
LF:859
LH:805
end_of_record
SF:/Users/jmagady/Dev/tally/src/main.rs
FN:139,_RNCNvCscXW0Qyq9Il1_5tally3run0B3_
FN:31,_RNvCscXW0Qyq9Il1_5tally3run
FN:10,_RNvCscXW0Qyq9Il1_5tally4main
FN:26,_RNvCscXW0Qyq9Il1_5tally5store
FN:139,_RNCNvCsaI8I9jfpIG1_5tally3run0B3_
FN:31,_RNvCsaI8I9jfpIG1_5tally3run
FN:10,_RNvCsaI8I9jfpIG1_5tally4main
FN:26,_RNvCsaI8I9jfpIG1_5tally5store
FNDA:0,_RNCNvCscXW0Qyq9Il1_5tally3run0B3_
FNDA:179,_RNvCscXW0Qyq9Il1_5tally3run
FNDA:180,_RNvCscXW0Qyq9Il1_5tally4main
FNDA:179,_RNvCscXW0Qyq9Il1_5tally5store
FNDA:0,_RNCNvCsaI8I9jfpIG1_5tally3run0B3_
FNDA:0,_RNvCsaI8I9jfpIG1_5tally3run
FNDA:0,_RNvCsaI8I9jfpIG1_5tally4main
FNDA:0,_RNvCsaI8I9jfpIG1_5tally5store
FNF:4
FNH:3
DA:10,180
DA:11,180
DA:13,180
DA:14,168
DA:15,12
DA:16,12
DA:17,12
DA:19,3
DA:20,9
DA:24,180
DA:26,179
DA:27,179
DA:28,179
DA:31,179
DA:32,179
DA:33,58
DA:35,62
DA:36,62
DA:37,62
DA:38,62
DA:39,62
DA:40,62
DA:41,62
DA:42,62
DA:43,62
DA:44,62
DA:45,62
DA:46,62
DA:47,62
DA:48,62
DA:49,62
DA:50,62
DA:51,62
DA:52,62
DA:53,62
DA:54,62
DA:55,62
DA:56,62
DA:57,62
DA:58,62
DA:59,62
DA:60,62
DA:61,62
DA:62,62
DA:63,62
DA:64,62
DA:65,62
DA:66,62
DA:67,62
DA:68,62
DA:69,62
DA:70,62
DA:73,26
DA:74,26
DA:75,26
DA:76,26
DA:77,26
DA:78,26
DA:79,26
DA:80,26
DA:81,26
DA:82,26
DA:83,26
DA:84,26
DA:85,26
DA:86,26
DA:87,26
DA:88,26
DA:91,9
DA:92,9
DA:93,9
DA:94,9
DA:95,9
DA:96,9
DA:97,9
DA:98,9
DA:99,9
DA:100,9
DA:101,9
DA:102,9
DA:103,9
DA:104,9
DA:105,9
DA:106,9
DA:107,9
DA:108,9
DA:111,8
DA:112,8
DA:113,8
DA:114,8
DA:115,8
DA:116,8
DA:117,8
DA:118,8
DA:119,8
DA:120,8
DA:121,8
DA:122,8
DA:123,8
DA:124,8
DA:126,1
DA:127,3
DA:128,3
DA:130,4
DA:131,4
DA:133,1
DA:134,5
DA:135,2
DA:137,0
DA:138,0
DA:139,0
DA:142,179
BRF:0
BRH:0
LF:113
LH:109
end_of_record
SF:/Users/jmagady/Dev/tally/src/mcp/server.rs
FN:330,_RNCNCNCNvMs8_NtNtCsfSTr4xOiCzA_5tally3mcp6serverNtBb_14TallyMcpServer14query_findings0s0_00Bf_
FN:485,_RNCNCNCNvMs8_NtNtCsfSTr4xOiCzA_5tally3mcp6serverNtBb_14TallyMcpServer16suppress_finding000Bf_
FN:318,_RNCNCNvMs8_NtNtCsfSTr4xOiCzA_5tally3mcp6serverNtB9_14TallyMcpServer14query_findings00Bd_
FN:327,_RNCNCNvMs8_NtNtCsfSTr4xOiCzA_5tally3mcp6serverNtB9_14TallyMcpServer14query_findings0s0_0Bd_
FN:334,_RNCNCNvMs8_NtNtCsfSTr4xOiCzA_5tally3mcp6serverNtB9_14TallyMcpServer14query_findings0s1_0Bd_
FN:323,_RNCNCNvMs8_NtNtCsfSTr4xOiCzA_5tally3mcp6serverNtB9_14TallyMcpServer14query_findings0s_0Bd_
FN:192,_RNCNCNvMs8_NtNtCsfSTr4xOiCzA_5tally3mcp6serverNtB9_14TallyMcpServer14record_finding00Bd_
FN:211,_RNCNCNvMs8_NtNtCsfSTr4xOiCzA_5tally3mcp6serverNtB9_14TallyMcpServer14record_finding0s_0Bd_
FN:482,_RNCNCNvMs8_NtNtCsfSTr4xOiCzA_5tally3mcp6serverNtB9_14TallyMcpServer16suppress_finding00Bd_
FN:516,_RNCNCNvMs8_NtNtCsfSTr4xOiCzA_5tally3mcp6serverNtB9_14TallyMcpServer16suppress_finding0s0_0Bd_
FN:495,_RNCNCNvMs8_NtNtCsfSTr4xOiCzA_5tally3mcp6serverNtB9_14TallyMcpServer16suppress_finding0s_0Bd_
FN:354,_RNCNCNvMs8_NtNtCsfSTr4xOiCzA_5tally3mcp6serverNtB9_14TallyMcpServer21update_finding_status00Bd_
FN:383,_RNCNCNvMs8_NtNtCsfSTr4xOiCzA_5tally3mcp6serverNtB9_14TallyMcpServer21update_finding_status0s_0Bd_
FN:811,_RNCNCNvNtNtCsfSTr4xOiCzA_5tally3mcp6server18read_resource_file00B9_
FN:422,_RNCNvMs8_NtNtCsfSTr4xOiCzA_5tally3mcp6serverNtB7_14TallyMcpServer12record_batch0Bb_
FN:311,_RNCNvMs8_NtNtCsfSTr4xOiCzA_5tally3mcp6serverNtB7_14TallyMcpServer14query_findings0Bb_
FN:187,_RNCNvMs8_NtNtCsfSTr4xOiCzA_5tally3mcp6serverNtB7_14TallyMcpServer14record_finding0Bb_
FN:465,_RNCNvMs8_NtNtCsfSTr4xOiCzA_5tally3mcp6serverNtB7_14TallyMcpServer16suppress_finding0Bb_
FN:408,_RNCNvMs8_NtNtCsfSTr4xOiCzA_5tally3mcp6serverNtB7_14TallyMcpServer19get_finding_context0Bb_
FN:347,_RNCNvMs8_NtNtCsfSTr4xOiCzA_5tally3mcp6serverNtB7_14TallyMcpServer21update_finding_status0Bb_
FN:177,_RNCNvMs8_NtNtCsfSTr4xOiCzA_5tally3mcp6serverNtB7_14TallyMcpServer5store0Bb_
FN:652,_RNCNvNtNtCsfSTr4xOiCzA_5tally3mcp6server14resolve_id_mcp0B7_
FN:837,_RNCNvNtNtCsfSTr4xOiCzA_5tally3mcp6server14run_mcp_server0B7_
FN:811,_RNCNvNtNtCsfSTr4xOiCzA_5tally3mcp6server18read_resource_file0B7_
FN:815,_RNCNvNtNtCsfSTr4xOiCzA_5tally3mcp6server18read_resource_files_0B7_
FN:717,_RNCNvNtNtCsfSTr4xOiCzA_5tally3mcp6server18record_batch_entrys_0B7_
FN:826,_RNCNvNtNtCsfSTr4xOiCzA_5tally3mcp6server20read_resource_detail0B7_
FN:777,_RNCNvNtNtCsfSTr4xOiCzA_5tally3mcp6server21read_resource_summary0B7_
FN:801,_RNCNvNtNtCsfSTr4xOiCzA_5tally3mcp6server21read_resource_summarys0_0B7_
FN:782,_RNCNvNtNtCsfSTr4xOiCzA_5tally3mcp6server21read_resource_summarys_0B7_
FN:594,_RNCNvXs9_NtNtCsfSTr4xOiCzA_5tally3mcp6serverNtB7_14TallyMcpServerNtNtNtCsjuPKfX2yTYr_4rmcp7handler6server13ServerHandler13read_resource0Bb_
FN:547,_RNCNvXs9_NtNtCsfSTr4xOiCzA_5tally3mcp6serverNtB7_14TallyMcpServerNtNtNtCsjuPKfX2yTYr_4rmcp7handler6server13ServerHandler14list_resources0Bb_
FN:562,_RNCNvXs9_NtNtCsfSTr4xOiCzA_5tally3mcp6serverNtB7_14TallyMcpServerNtNtNtCsjuPKfX2yTYr_4rmcp7handler6server13ServerHandler23list_resource_templates0Bb_
FN:168,_RNvMs8_NtNtCsfSTr4xOiCzA_5tally3mcp6serverNtB5_14TallyMcpServer3new
FN:175,_RNvMs8_NtNtCsfSTr4xOiCzA_5tally3mcp6serverNtB5_14TallyMcpServer5store
FN:628,_RNvNtNtCsfSTr4xOiCzA_5tally3mcp6server10to_mcp_err
FN:723,_RNvNtNtCsfSTr4xOiCzA_5tally3mcp6server13build_finding
FN:637,_RNvNtNtCsfSTr4xOiCzA_5tally3mcp6server14resolve_id_mcp
FN:837,_RNvNtNtCsfSTr4xOiCzA_5tally3mcp6server14run_mcp_server
FN:807,_RNvNtNtCsfSTr4xOiCzA_5tally3mcp6server18read_resource_file
FN:657,_RNvNtNtCsfSTr4xOiCzA_5tally3mcp6server18record_batch_entry
FN:821,_RNvNtNtCsfSTr4xOiCzA_5tally3mcp6server20read_resource_detail
FN:763,_RNvNtNtCsfSTr4xOiCzA_5tally3mcp6server21read_resource_summary
FN:590,_RNvXs9_NtNtCsfSTr4xOiCzA_5tally3mcp6serverNtB5_14TallyMcpServerNtNtNtCsjuPKfX2yTYr_4rmcp7handler6server13ServerHandler13read_resource
FN:543,_RNvXs9_NtNtCsfSTr4xOiCzA_5tally3mcp6serverNtB5_14TallyMcpServerNtNtNtCsjuPKfX2yTYr_4rmcp7handler6server13ServerHandler14list_resources
FN:558,_RNvXs9_NtNtCsfSTr4xOiCzA_5tally3mcp6serverNtB5_14TallyMcpServerNtNtNtCsjuPKfX2yTYr_4rmcp7handler6server13ServerHandler23list_resource_templates
FN:525,_RNvXs9_NtNtCsfSTr4xOiCzA_5tally3mcp6serverNtB5_14TallyMcpServerNtNtNtCsjuPKfX2yTYr_4rmcp7handler6server13ServerHandler8get_info
FN:837,_RNvNtNtCsiNX1mHs4n5r_5tally3mcp6server14run_mcp_server
FN:330,_RNCNCNCNvMs8_NtNtCsiNX1mHs4n5r_5tally3mcp6serverNtBb_14TallyMcpServer14query_findings0s0_00Bf_
FN:485,_RNCNCNCNvMs8_NtNtCsiNX1mHs4n5r_5tally3mcp6serverNtBb_14TallyMcpServer16suppress_finding000Bf_
FN:318,_RNCNCNvMs8_NtNtCsiNX1mHs4n5r_5tally3mcp6serverNtB9_14TallyMcpServer14query_findings00Bd_
FN:327,_RNCNCNvMs8_NtNtCsiNX1mHs4n5r_5tally3mcp6serverNtB9_14TallyMcpServer14query_findings0s0_0Bd_
FN:334,_RNCNCNvMs8_NtNtCsiNX1mHs4n5r_5tally3mcp6serverNtB9_14TallyMcpServer14query_findings0s1_0Bd_
FN:323,_RNCNCNvMs8_NtNtCsiNX1mHs4n5r_5tally3mcp6serverNtB9_14TallyMcpServer14query_findings0s_0Bd_
FN:192,_RNCNCNvMs8_NtNtCsiNX1mHs4n5r_5tally3mcp6serverNtB9_14TallyMcpServer14record_finding00Bd_
FN:211,_RNCNCNvMs8_NtNtCsiNX1mHs4n5r_5tally3mcp6serverNtB9_14TallyMcpServer14record_finding0s_0Bd_
FN:482,_RNCNCNvMs8_NtNtCsiNX1mHs4n5r_5tally3mcp6serverNtB9_14TallyMcpServer16suppress_finding00Bd_
FN:516,_RNCNCNvMs8_NtNtCsiNX1mHs4n5r_5tally3mcp6serverNtB9_14TallyMcpServer16suppress_finding0s0_0Bd_
FN:495,_RNCNCNvMs8_NtNtCsiNX1mHs4n5r_5tally3mcp6serverNtB9_14TallyMcpServer16suppress_finding0s_0Bd_
FN:354,_RNCNCNvMs8_NtNtCsiNX1mHs4n5r_5tally3mcp6serverNtB9_14TallyMcpServer21update_finding_status00Bd_
FN:383,_RNCNCNvMs8_NtNtCsiNX1mHs4n5r_5tally3mcp6serverNtB9_14TallyMcpServer21update_finding_status0s_0Bd_
FN:811,_RNCNCNvNtNtCsiNX1mHs4n5r_5tally3mcp6server18read_resource_file00B9_
FN:422,_RNCNvMs8_NtNtCsiNX1mHs4n5r_5tally3mcp6serverNtB7_14TallyMcpServer12record_batch0Bb_
FN:311,_RNCNvMs8_NtNtCsiNX1mHs4n5r_5tally3mcp6serverNtB7_14TallyMcpServer14query_findings0Bb_
FN:187,_RNCNvMs8_NtNtCsiNX1mHs4n5r_5tally3mcp6serverNtB7_14TallyMcpServer14record_finding0Bb_
FN:465,_RNCNvMs8_NtNtCsiNX1mHs4n5r_5tally3mcp6serverNtB7_14TallyMcpServer16suppress_finding0Bb_
FN:408,_RNCNvMs8_NtNtCsiNX1mHs4n5r_5tally3mcp6serverNtB7_14TallyMcpServer19get_finding_context0Bb_
FN:347,_RNCNvMs8_NtNtCsiNX1mHs4n5r_5tally3mcp6serverNtB7_14TallyMcpServer21update_finding_status0Bb_
FN:177,_RNCNvMs8_NtNtCsiNX1mHs4n5r_5tally3mcp6serverNtB7_14TallyMcpServer5store0Bb_
FN:652,_RNCNvNtNtCsiNX1mHs4n5r_5tally3mcp6server14resolve_id_mcp0B7_
FN:837,_RNCNvNtNtCsiNX1mHs4n5r_5tally3mcp6server14run_mcp_server0B7_
FN:811,_RNCNvNtNtCsiNX1mHs4n5r_5tally3mcp6server18read_resource_file0B7_
FN:815,_RNCNvNtNtCsiNX1mHs4n5r_5tally3mcp6server18read_resource_files_0B7_
FN:717,_RNCNvNtNtCsiNX1mHs4n5r_5tally3mcp6server18record_batch_entrys_0B7_
FN:826,_RNCNvNtNtCsiNX1mHs4n5r_5tally3mcp6server20read_resource_detail0B7_
FN:777,_RNCNvNtNtCsiNX1mHs4n5r_5tally3mcp6server21read_resource_summary0B7_
FN:801,_RNCNvNtNtCsiNX1mHs4n5r_5tally3mcp6server21read_resource_summarys0_0B7_
FN:782,_RNCNvNtNtCsiNX1mHs4n5r_5tally3mcp6server21read_resource_summarys_0B7_
FN:594,_RNCNvXs9_NtNtCsiNX1mHs4n5r_5tally3mcp6serverNtB7_14TallyMcpServerNtNtNtCsjuPKfX2yTYr_4rmcp7handler6server13ServerHandler13read_resource0Bb_
FN:547,_RNCNvXs9_NtNtCsiNX1mHs4n5r_5tally3mcp6serverNtB7_14TallyMcpServerNtNtNtCsjuPKfX2yTYr_4rmcp7handler6server13ServerHandler14list_resources0Bb_
FN:562,_RNCNvXs9_NtNtCsiNX1mHs4n5r_5tally3mcp6serverNtB7_14TallyMcpServerNtNtNtCsjuPKfX2yTYr_4rmcp7handler6server13ServerHandler23list_resource_templates0Bb_
FN:168,_RNvMs8_NtNtCsiNX1mHs4n5r_5tally3mcp6serverNtB5_14TallyMcpServer3new
FN:175,_RNvMs8_NtNtCsiNX1mHs4n5r_5tally3mcp6serverNtB5_14TallyMcpServer5store
FN:628,_RNvNtNtCsiNX1mHs4n5r_5tally3mcp6server10to_mcp_err
FN:723,_RNvNtNtCsiNX1mHs4n5r_5tally3mcp6server13build_finding
FN:637,_RNvNtNtCsiNX1mHs4n5r_5tally3mcp6server14resolve_id_mcp
FN:807,_RNvNtNtCsiNX1mHs4n5r_5tally3mcp6server18read_resource_file
FN:657,_RNvNtNtCsiNX1mHs4n5r_5tally3mcp6server18record_batch_entry
FN:821,_RNvNtNtCsiNX1mHs4n5r_5tally3mcp6server20read_resource_detail
FN:763,_RNvNtNtCsiNX1mHs4n5r_5tally3mcp6server21read_resource_summary
FN:590,_RNvXs9_NtNtCsiNX1mHs4n5r_5tally3mcp6serverNtB5_14TallyMcpServerNtNtNtCsjuPKfX2yTYr_4rmcp7handler6server13ServerHandler13read_resource
FN:543,_RNvXs9_NtNtCsiNX1mHs4n5r_5tally3mcp6serverNtB5_14TallyMcpServerNtNtNtCsjuPKfX2yTYr_4rmcp7handler6server13ServerHandler14list_resources
FN:558,_RNvXs9_NtNtCsiNX1mHs4n5r_5tally3mcp6serverNtB5_14TallyMcpServerNtNtNtCsjuPKfX2yTYr_4rmcp7handler6server13ServerHandler23list_resource_templates
FN:525,_RNvXs9_NtNtCsiNX1mHs4n5r_5tally3mcp6serverNtB5_14TallyMcpServerNtNtNtCsjuPKfX2yTYr_4rmcp7handler6server13ServerHandler8get_info
FNDA:0,_RNCNCNCNvMs8_NtNtCsfSTr4xOiCzA_5tally3mcp6serverNtBb_14TallyMcpServer14query_findings0s0_00Bf_
FNDA:0,_RNCNCNCNvMs8_NtNtCsfSTr4xOiCzA_5tally3mcp6serverNtBb_14TallyMcpServer16suppress_finding000Bf_
FNDA:0,_RNCNCNvMs8_NtNtCsfSTr4xOiCzA_5tally3mcp6serverNtB9_14TallyMcpServer14query_findings00Bd_
FNDA:0,_RNCNCNvMs8_NtNtCsfSTr4xOiCzA_5tally3mcp6serverNtB9_14TallyMcpServer14query_findings0s0_0Bd_
FNDA:0,_RNCNCNvMs8_NtNtCsfSTr4xOiCzA_5tally3mcp6serverNtB9_14TallyMcpServer14query_findings0s1_0Bd_
FNDA:0,_RNCNCNvMs8_NtNtCsfSTr4xOiCzA_5tally3mcp6serverNtB9_14TallyMcpServer14query_findings0s_0Bd_
FNDA:0,_RNCNCNvMs8_NtNtCsfSTr4xOiCzA_5tally3mcp6serverNtB9_14TallyMcpServer14record_finding00Bd_
FNDA:0,_RNCNCNvMs8_NtNtCsfSTr4xOiCzA_5tally3mcp6serverNtB9_14TallyMcpServer14record_finding0s_0Bd_
FNDA:0,_RNCNCNvMs8_NtNtCsfSTr4xOiCzA_5tally3mcp6serverNtB9_14TallyMcpServer16suppress_finding00Bd_
FNDA:0,_RNCNCNvMs8_NtNtCsfSTr4xOiCzA_5tally3mcp6serverNtB9_14TallyMcpServer16suppress_finding0s0_0Bd_
FNDA:0,_RNCNCNvMs8_NtNtCsfSTr4xOiCzA_5tally3mcp6serverNtB9_14TallyMcpServer16suppress_finding0s_0Bd_
FNDA:0,_RNCNCNvMs8_NtNtCsfSTr4xOiCzA_5tally3mcp6serverNtB9_14TallyMcpServer21update_finding_status00Bd_
FNDA:0,_RNCNCNvMs8_NtNtCsfSTr4xOiCzA_5tally3mcp6serverNtB9_14TallyMcpServer21update_finding_status0s_0Bd_
FNDA:0,_RNCNCNvNtNtCsfSTr4xOiCzA_5tally3mcp6server18read_resource_file00B9_
FNDA:0,_RNCNvMs8_NtNtCsfSTr4xOiCzA_5tally3mcp6serverNtB7_14TallyMcpServer12record_batch0Bb_
FNDA:0,_RNCNvMs8_NtNtCsfSTr4xOiCzA_5tally3mcp6serverNtB7_14TallyMcpServer14query_findings0Bb_
FNDA:0,_RNCNvMs8_NtNtCsfSTr4xOiCzA_5tally3mcp6serverNtB7_14TallyMcpServer14record_finding0Bb_
FNDA:0,_RNCNvMs8_NtNtCsfSTr4xOiCzA_5tally3mcp6serverNtB7_14TallyMcpServer16suppress_finding0Bb_
FNDA:0,_RNCNvMs8_NtNtCsfSTr4xOiCzA_5tally3mcp6serverNtB7_14TallyMcpServer19get_finding_context0Bb_
FNDA:0,_RNCNvMs8_NtNtCsfSTr4xOiCzA_5tally3mcp6serverNtB7_14TallyMcpServer21update_finding_status0Bb_
FNDA:0,_RNCNvMs8_NtNtCsfSTr4xOiCzA_5tally3mcp6serverNtB7_14TallyMcpServer5store0Bb_
FNDA:0,_RNCNvNtNtCsfSTr4xOiCzA_5tally3mcp6server14resolve_id_mcp0B7_
FNDA:0,_RNCNvNtNtCsfSTr4xOiCzA_5tally3mcp6server14run_mcp_server0B7_
FNDA:0,_RNCNvNtNtCsfSTr4xOiCzA_5tally3mcp6server18read_resource_file0B7_
FNDA:0,_RNCNvNtNtCsfSTr4xOiCzA_5tally3mcp6server18read_resource_files_0B7_
FNDA:0,_RNCNvNtNtCsfSTr4xOiCzA_5tally3mcp6server18record_batch_entrys_0B7_
FNDA:0,_RNCNvNtNtCsfSTr4xOiCzA_5tally3mcp6server20read_resource_detail0B7_
FNDA:0,_RNCNvNtNtCsfSTr4xOiCzA_5tally3mcp6server21read_resource_summary0B7_
FNDA:0,_RNCNvNtNtCsfSTr4xOiCzA_5tally3mcp6server21read_resource_summarys0_0B7_
FNDA:0,_RNCNvNtNtCsfSTr4xOiCzA_5tally3mcp6server21read_resource_summarys_0B7_
FNDA:0,_RNCNvXs9_NtNtCsfSTr4xOiCzA_5tally3mcp6serverNtB7_14TallyMcpServerNtNtNtCsjuPKfX2yTYr_4rmcp7handler6server13ServerHandler13read_resource0Bb_
FNDA:0,_RNCNvXs9_NtNtCsfSTr4xOiCzA_5tally3mcp6serverNtB7_14TallyMcpServerNtNtNtCsjuPKfX2yTYr_4rmcp7handler6server13ServerHandler14list_resources0Bb_
FNDA:0,_RNCNvXs9_NtNtCsfSTr4xOiCzA_5tally3mcp6serverNtB7_14TallyMcpServerNtNtNtCsjuPKfX2yTYr_4rmcp7handler6server13ServerHandler23list_resource_templates0Bb_
FNDA:0,_RNvMs8_NtNtCsfSTr4xOiCzA_5tally3mcp6serverNtB5_14TallyMcpServer3new
FNDA:0,_RNvMs8_NtNtCsfSTr4xOiCzA_5tally3mcp6serverNtB5_14TallyMcpServer5store
FNDA:0,_RNvNtNtCsfSTr4xOiCzA_5tally3mcp6server10to_mcp_err
FNDA:0,_RNvNtNtCsfSTr4xOiCzA_5tally3mcp6server13build_finding
FNDA:0,_RNvNtNtCsfSTr4xOiCzA_5tally3mcp6server14resolve_id_mcp
FNDA:0,_RNvNtNtCsfSTr4xOiCzA_5tally3mcp6server14run_mcp_server
FNDA:0,_RNvNtNtCsfSTr4xOiCzA_5tally3mcp6server18read_resource_file
FNDA:0,_RNvNtNtCsfSTr4xOiCzA_5tally3mcp6server18record_batch_entry
FNDA:0,_RNvNtNtCsfSTr4xOiCzA_5tally3mcp6server20read_resource_detail
FNDA:0,_RNvNtNtCsfSTr4xOiCzA_5tally3mcp6server21read_resource_summary
FNDA:0,_RNvXs9_NtNtCsfSTr4xOiCzA_5tally3mcp6serverNtB5_14TallyMcpServerNtNtNtCsjuPKfX2yTYr_4rmcp7handler6server13ServerHandler13read_resource
FNDA:0,_RNvXs9_NtNtCsfSTr4xOiCzA_5tally3mcp6serverNtB5_14TallyMcpServerNtNtNtCsjuPKfX2yTYr_4rmcp7handler6server13ServerHandler14list_resources
FNDA:0,_RNvXs9_NtNtCsfSTr4xOiCzA_5tally3mcp6serverNtB5_14TallyMcpServerNtNtNtCsjuPKfX2yTYr_4rmcp7handler6server13ServerHandler23list_resource_templates
FNDA:0,_RNvXs9_NtNtCsfSTr4xOiCzA_5tally3mcp6serverNtB5_14TallyMcpServerNtNtNtCsjuPKfX2yTYr_4rmcp7handler6server13ServerHandler8get_info
FNDA:0,_RNvNtNtCsiNX1mHs4n5r_5tally3mcp6server14run_mcp_server
FNDA:0,_RNCNCNCNvMs8_NtNtCsiNX1mHs4n5r_5tally3mcp6serverNtBb_14TallyMcpServer14query_findings0s0_00Bf_
FNDA:0,_RNCNCNCNvMs8_NtNtCsiNX1mHs4n5r_5tally3mcp6serverNtBb_14TallyMcpServer16suppress_finding000Bf_
FNDA:0,_RNCNCNvMs8_NtNtCsiNX1mHs4n5r_5tally3mcp6serverNtB9_14TallyMcpServer14query_findings00Bd_
FNDA:0,_RNCNCNvMs8_NtNtCsiNX1mHs4n5r_5tally3mcp6serverNtB9_14TallyMcpServer14query_findings0s0_0Bd_
FNDA:0,_RNCNCNvMs8_NtNtCsiNX1mHs4n5r_5tally3mcp6serverNtB9_14TallyMcpServer14query_findings0s1_0Bd_
FNDA:0,_RNCNCNvMs8_NtNtCsiNX1mHs4n5r_5tally3mcp6serverNtB9_14TallyMcpServer14query_findings0s_0Bd_
FNDA:0,_RNCNCNvMs8_NtNtCsiNX1mHs4n5r_5tally3mcp6serverNtB9_14TallyMcpServer14record_finding00Bd_
FNDA:0,_RNCNCNvMs8_NtNtCsiNX1mHs4n5r_5tally3mcp6serverNtB9_14TallyMcpServer14record_finding0s_0Bd_
FNDA:0,_RNCNCNvMs8_NtNtCsiNX1mHs4n5r_5tally3mcp6serverNtB9_14TallyMcpServer16suppress_finding00Bd_
FNDA:0,_RNCNCNvMs8_NtNtCsiNX1mHs4n5r_5tally3mcp6serverNtB9_14TallyMcpServer16suppress_finding0s0_0Bd_
FNDA:0,_RNCNCNvMs8_NtNtCsiNX1mHs4n5r_5tally3mcp6serverNtB9_14TallyMcpServer16suppress_finding0s_0Bd_
FNDA:0,_RNCNCNvMs8_NtNtCsiNX1mHs4n5r_5tally3mcp6serverNtB9_14TallyMcpServer21update_finding_status00Bd_
FNDA:0,_RNCNCNvMs8_NtNtCsiNX1mHs4n5r_5tally3mcp6serverNtB9_14TallyMcpServer21update_finding_status0s_0Bd_
FNDA:0,_RNCNCNvNtNtCsiNX1mHs4n5r_5tally3mcp6server18read_resource_file00B9_
FNDA:0,_RNCNvMs8_NtNtCsiNX1mHs4n5r_5tally3mcp6serverNtB7_14TallyMcpServer12record_batch0Bb_
FNDA:0,_RNCNvMs8_NtNtCsiNX1mHs4n5r_5tally3mcp6serverNtB7_14TallyMcpServer14query_findings0Bb_
FNDA:0,_RNCNvMs8_NtNtCsiNX1mHs4n5r_5tally3mcp6serverNtB7_14TallyMcpServer14record_finding0Bb_
FNDA:0,_RNCNvMs8_NtNtCsiNX1mHs4n5r_5tally3mcp6serverNtB7_14TallyMcpServer16suppress_finding0Bb_
FNDA:0,_RNCNvMs8_NtNtCsiNX1mHs4n5r_5tally3mcp6serverNtB7_14TallyMcpServer19get_finding_context0Bb_
FNDA:0,_RNCNvMs8_NtNtCsiNX1mHs4n5r_5tally3mcp6serverNtB7_14TallyMcpServer21update_finding_status0Bb_
FNDA:0,_RNCNvMs8_NtNtCsiNX1mHs4n5r_5tally3mcp6serverNtB7_14TallyMcpServer5store0Bb_
FNDA:0,_RNCNvNtNtCsiNX1mHs4n5r_5tally3mcp6server14resolve_id_mcp0B7_
FNDA:0,_RNCNvNtNtCsiNX1mHs4n5r_5tally3mcp6server14run_mcp_server0B7_
FNDA:0,_RNCNvNtNtCsiNX1mHs4n5r_5tally3mcp6server18read_resource_file0B7_
FNDA:0,_RNCNvNtNtCsiNX1mHs4n5r_5tally3mcp6server18read_resource_files_0B7_
FNDA:0,_RNCNvNtNtCsiNX1mHs4n5r_5tally3mcp6server18record_batch_entrys_0B7_
FNDA:0,_RNCNvNtNtCsiNX1mHs4n5r_5tally3mcp6server20read_resource_detail0B7_
FNDA:0,_RNCNvNtNtCsiNX1mHs4n5r_5tally3mcp6server21read_resource_summary0B7_
FNDA:0,_RNCNvNtNtCsiNX1mHs4n5r_5tally3mcp6server21read_resource_summarys0_0B7_
FNDA:0,_RNCNvNtNtCsiNX1mHs4n5r_5tally3mcp6server21read_resource_summarys_0B7_
FNDA:0,_RNCNvXs9_NtNtCsiNX1mHs4n5r_5tally3mcp6serverNtB7_14TallyMcpServerNtNtNtCsjuPKfX2yTYr_4rmcp7handler6server13ServerHandler13read_resource0Bb_
FNDA:0,_RNCNvXs9_NtNtCsiNX1mHs4n5r_5tally3mcp6serverNtB7_14TallyMcpServerNtNtNtCsjuPKfX2yTYr_4rmcp7handler6server13ServerHandler14list_resources0Bb_
FNDA:0,_RNCNvXs9_NtNtCsiNX1mHs4n5r_5tally3mcp6serverNtB7_14TallyMcpServerNtNtNtCsjuPKfX2yTYr_4rmcp7handler6server13ServerHandler23list_resource_templates0Bb_
FNDA:0,_RNvMs8_NtNtCsiNX1mHs4n5r_5tally3mcp6serverNtB5_14TallyMcpServer3new
FNDA:0,_RNvMs8_NtNtCsiNX1mHs4n5r_5tally3mcp6serverNtB5_14TallyMcpServer5store
FNDA:0,_RNvNtNtCsiNX1mHs4n5r_5tally3mcp6server10to_mcp_err
FNDA:0,_RNvNtNtCsiNX1mHs4n5r_5tally3mcp6server13build_finding
FNDA:0,_RNvNtNtCsiNX1mHs4n5r_5tally3mcp6server14resolve_id_mcp
FNDA:0,_RNvNtNtCsiNX1mHs4n5r_5tally3mcp6server18read_resource_file
FNDA:0,_RNvNtNtCsiNX1mHs4n5r_5tally3mcp6server18record_batch_entry
FNDA:0,_RNvNtNtCsiNX1mHs4n5r_5tally3mcp6server20read_resource_detail
FNDA:0,_RNvNtNtCsiNX1mHs4n5r_5tally3mcp6server21read_resource_summary
FNDA:0,_RNvXs9_NtNtCsiNX1mHs4n5r_5tally3mcp6serverNtB5_14TallyMcpServerNtNtNtCsjuPKfX2yTYr_4rmcp7handler6server13ServerHandler13read_resource
FNDA:0,_RNvXs9_NtNtCsiNX1mHs4n5r_5tally3mcp6serverNtB5_14TallyMcpServerNtNtNtCsjuPKfX2yTYr_4rmcp7handler6server13ServerHandler14list_resources
FNDA:0,_RNvXs9_NtNtCsiNX1mHs4n5r_5tally3mcp6serverNtB5_14TallyMcpServerNtNtNtCsjuPKfX2yTYr_4rmcp7handler6server13ServerHandler23list_resource_templates
FNDA:0,_RNvXs9_NtNtCsiNX1mHs4n5r_5tally3mcp6serverNtB5_14TallyMcpServerNtNtNtCsjuPKfX2yTYr_4rmcp7handler6server13ServerHandler8get_info
FNF:47
FNH:0
DA:168,0
DA:169,0
DA:170,0
DA:171,0
DA:172,0
DA:173,0
DA:175,0
DA:176,0
DA:177,0
DA:178,0
DA:179,0
DA:180,0
DA:181,0
DA:187,0
DA:188,0
DA:189,0
DA:190,0
DA:192,0
DA:193,0
DA:194,0
DA:196,0
DA:197,0
DA:198,0
DA:199,0
DA:200,0
DA:201,0
DA:202,0
DA:205,0
DA:206,0
DA:207,0
DA:208,0
DA:209,0
DA:210,0
DA:211,0
DA:212,0
DA:213,0
DA:214,0
DA:215,0
DA:217,0
DA:218,0
DA:219,0
DA:220,0
DA:221,0
DA:222,0
DA:223,0
DA:224,0
DA:226,0
DA:228,0
DA:231,0
DA:232,0
DA:233,0
DA:234,0
DA:235,0
DA:236,0
DA:237,0
DA:238,0
DA:241,0
DA:242,0
DA:243,0
DA:244,0
DA:245,0
DA:246,0
DA:247,0
DA:249,0
DA:250,0
DA:251,0
DA:252,0
DA:253,0
DA:254,0
DA:255,0
DA:256,0
DA:257,0
DA:258,0
DA:259,0
DA:260,0
DA:261,0
DA:262,0
DA:263,0
DA:264,0
DA:265,0
DA:266,0
DA:267,0
DA:269,0
DA:270,0
DA:271,0
DA:272,0
DA:273,0
DA:274,0
DA:275,0
DA:276,0
DA:277,0
DA:280,0
DA:281,0
DA:282,0
DA:283,0
DA:284,0
DA:285,0
DA:286,0
DA:287,0
DA:288,0
DA:290,0
DA:291,0
DA:292,0
DA:293,0
DA:294,0
DA:295,0
DA:296,0
DA:297,0
DA:298,0
DA:302,0
DA:303,0
DA:304,0
DA:311,0
DA:312,0
DA:313,0
DA:314,0
DA:316,0
DA:317,0
DA:318,0
DA:319,0
DA:320,0
DA:321,0
DA:322,0
DA:323,0
DA:324,0
DA:325,0
DA:326,0
DA:327,0
DA:328,0
DA:329,0
DA:330,0
DA:331,0
DA:332,0
DA:333,0
DA:334,0
DA:335,0
DA:336,0
DA:338,0
DA:339,0
DA:340,0
DA:347,0
DA:348,0
DA:349,0
DA:350,0
DA:351,0
DA:352,0
DA:354,0
DA:355,0
DA:356,0
DA:358,0
DA:359,0
DA:360,0
DA:361,0
DA:362,0
DA:363,0
DA:364,0
DA:365,0
DA:366,0
DA:367,0
DA:368,0
DA:369,0
DA:370,0
DA:371,0
DA:372,0
DA:373,0
DA:374,0
DA:375,0
DA:376,0
DA:377,0
DA:379,0
DA:380,0
DA:381,0
DA:382,0
DA:383,0
DA:384,0
DA:385,0
DA:387,0
DA:388,0
DA:389,0
DA:391,0
DA:392,0
DA:393,0
DA:394,0
DA:395,0
DA:396,0
DA:397,0
DA:398,0
DA:399,0
DA:400,0
DA:401,0
DA:408,0
DA:409,0
DA:410,0
DA:411,0
DA:412,0
DA:413,0
DA:414,0
DA:415,0
DA:422,0
DA:423,0
DA:424,0
DA:425,0
DA:426,0
DA:427,0
DA:429,0
DA:430,0
DA:431,0
DA:432,0
DA:434,0
DA:435,0
DA:436,0
DA:437,0
DA:438,0
DA:439,0
DA:440,0
DA:441,0
DA:442,0
DA:443,0
DA:444,0
DA:445,0
DA:449,0
DA:450,0
DA:451,0
DA:452,0
DA:453,0
DA:456,0
DA:457,0
DA:458,0
DA:465,0
DA:466,0
DA:467,0
DA:468,0
DA:469,0
DA:471,0
DA:472,0
DA:473,0
DA:474,0
DA:475,0
DA:476,0
DA:477,0
DA:479,0
DA:480,0
DA:481,0
DA:482,0
DA:483,0
DA:485,0
DA:486,0
DA:487,0
DA:488,0
DA:489,0
DA:491,0
DA:492,0
DA:493,0
DA:494,0
DA:495,0
DA:496,0
DA:497,0
DA:499,0
DA:500,0
DA:501,0
DA:502,0
DA:503,0
DA:504,0
DA:505,0
DA:506,0
DA:507,0
DA:509,0
DA:510,0
DA:511,0
DA:512,0
DA:513,0
DA:514,0
DA:515,0
DA:516,0
DA:518,0
DA:525,0
DA:526,0
DA:527,0
DA:528,0
DA:529,0
DA:530,0
DA:531,0
DA:532,0
DA:533,0
DA:534,0
DA:535,0
DA:536,0
DA:537,0
DA:538,0
DA:539,0
DA:540,0
DA:541,0
DA:543,0
DA:544,0
DA:545,0
DA:546,0
DA:547,0
DA:548,0
DA:549,0
DA:550,0
DA:552,0
DA:553,0
DA:554,0
DA:555,0
DA:556,0
DA:558,0
DA:559,0
DA:560,0
DA:561,0
DA:562,0
DA:563,0
DA:564,0
DA:565,0
DA:566,0
DA:567,0
DA:568,0
DA:569,0
DA:570,0
DA:571,0
DA:572,0
DA:573,0
DA:574,0
DA:575,0
DA:576,0
DA:577,0
DA:578,0
DA:579,0
DA:580,0
DA:581,0
DA:582,0
DA:583,0
DA:584,0
DA:585,0
DA:586,0
DA:587,0
DA:588,0
DA:590,0
DA:591,0
DA:592,0
DA:593,0
DA:594,0
DA:595,0
DA:596,0
DA:598,0
DA:599,0
DA:600,0
DA:601,0
DA:602,0
DA:603,0
DA:605,0
DA:606,0
DA:607,0
DA:608,0
DA:609,0
DA:612,0
DA:613,0
DA:614,0
DA:615,0
DA:628,0
DA:629,0
DA:630,0
DA:631,0
DA:632,0
DA:633,0
DA:634,0
DA:637,0
DA:639,0
DA:640,0
DA:641,0
DA:644,0
DA:645,0
DA:646,0
DA:647,0
DA:648,0
DA:650,0
DA:652,0
DA:653,0
DA:654,0
DA:655,0
DA:657,0
DA:658,0
DA:659,0
DA:660,0
DA:661,0
DA:662,0
DA:663,0
DA:665,0
DA:666,0
DA:667,0
DA:668,0
DA:669,0
DA:670,0
DA:671,0
DA:673,0
DA:674,0
DA:675,0
DA:676,0
DA:677,0
DA:678,0
DA:682,0
DA:683,0
DA:684,0
DA:687,0
DA:688,0
DA:689,0
DA:690,0
DA:691,0
DA:692,0
DA:693,0
DA:694,0
DA:695,0
DA:696,0
DA:697,0
DA:698,0
DA:699,0
DA:700,0
DA:701,0
DA:702,0
DA:703,0
DA:704,0
DA:705,0
DA:706,0
DA:707,0
DA:708,0
DA:709,0
DA:710,0
DA:711,0
DA:712,0
DA:713,0
DA:714,0
DA:715,0
DA:716,0
DA:717,0
DA:718,0
DA:721,0
DA:723,0
DA:724,0
DA:725,0
DA:726,0
DA:727,0
DA:728,0
DA:729,0
DA:730,0
DA:731,0
DA:732,0
DA:733,0
DA:734,0
DA:735,0
DA:736,0
DA:737,0
DA:738,0
DA:739,0
DA:740,0
DA:741,0
DA:742,0
DA:743,0
DA:744,0
DA:745,0
DA:746,0
DA:747,0
DA:748,0
DA:749,0
DA:750,0
DA:751,0
DA:752,0
DA:753,0
DA:754,0
DA:755,0
DA:756,0
DA:757,0
DA:758,0
DA:759,0
DA:760,0
DA:761,0
DA:763,0
DA:764,0
DA:766,0
DA:767,0
DA:768,0
DA:769,0
DA:770,0
DA:771,0
DA:773,0
DA:776,0
DA:777,0
DA:778,0
DA:780,0
DA:781,0
DA:782,0
DA:783,0
DA:784,0
DA:785,0
DA:786,0
DA:787,0
DA:788,0
DA:790,0
DA:791,0
DA:793,0
DA:794,0
DA:795,0
DA:796,0
DA:797,0
DA:800,0
DA:801,0
DA:802,0
DA:803,0
DA:804,0
DA:805,0
DA:807,0
DA:808,0
DA:809,0
DA:810,0
DA:811,0
DA:812,0
DA:814,0
DA:815,0
DA:816,0
DA:817,0
DA:818,0
DA:819,0
DA:821,0
DA:822,0
DA:823,0
DA:825,0
DA:826,0
DA:827,0
DA:828,0
DA:829,0
DA:830,0
DA:837,0
DA:840,0
DA:841,0
DA:843,0
DA:844,0
DA:845,0
DA:847,0
DA:848,0
DA:849,0
BRF:0
BRH:0
LF:559
LH:0
end_of_record
SF:/Users/jmagady/Dev/tally/src/model/finding.rs
FN:112,_RNvMNtNtCsfSTr4xOiCzA_5tally5model7findingNtB2_8Severity12short_prefix
FN:123,_RNvMNtNtCsfSTr4xOiCzA_5tally5model7findingNtB2_8Severity14to_sarif_level
FN:147,_RNvXs0_NtNtCsfSTr4xOiCzA_5tally5model7findingNtB5_8SeverityNtNtNtCsezyhsC6CBT9_4core3str6traits7FromStr8from_str
FN:200,_RNvXs1_NtNtCsfSTr4xOiCzA_5tally5model7findingNtB5_16RelationshipTypeNtNtCsezyhsC6CBT9_4core3fmt7Display3fmt
FN:215,_RNvXs2_NtNtCsfSTr4xOiCzA_5tally5model7findingNtB5_16RelationshipTypeNtNtNtCsezyhsC6CBT9_4core3str6traits7FromStr8from_str
FN:134,_RNvXs_NtNtCsfSTr4xOiCzA_5tally5model7findingNtB4_8SeverityNtNtCsezyhsC6CBT9_4core3fmt7Display3fmt
FN:123,_RNvMNtNtCsiNX1mHs4n5r_5tally5model7findingNtB2_8Severity14to_sarif_level
FN:200,_RNvXs1_NtNtCsiNX1mHs4n5r_5tally5model7findingNtB5_16RelationshipTypeNtNtCsezyhsC6CBT9_4core3fmt7Display3fmt
FN:215,_RNvXs2_NtNtCsiNX1mHs4n5r_5tally5model7findingNtB5_16RelationshipTypeNtNtNtCsezyhsC6CBT9_4core3str6traits7FromStr8from_str
FN:112,_RNvMNtNtCsiNX1mHs4n5r_5tally5model7findingNtB2_8Severity12short_prefix
FN:147,_RNvXs0_NtNtCsiNX1mHs4n5r_5tally5model7findingNtB5_8SeverityNtNtNtCsezyhsC6CBT9_4core3str6traits7FromStr8from_str
FN:134,_RNvXs_NtNtCsiNX1mHs4n5r_5tally5model7findingNtB4_8SeverityNtNtCsezyhsC6CBT9_4core3fmt7Display3fmt
FNDA:57,_RNvMNtNtCsfSTr4xOiCzA_5tally5model7findingNtB2_8Severity12short_prefix
FNDA:6,_RNvMNtNtCsfSTr4xOiCzA_5tally5model7findingNtB2_8Severity14to_sarif_level
FNDA:344,_RNvXs0_NtNtCsfSTr4xOiCzA_5tally5model7findingNtB5_8SeverityNtNtNtCsezyhsC6CBT9_4core3str6traits7FromStr8from_str
FNDA:6,_RNvXs1_NtNtCsfSTr4xOiCzA_5tally5model7findingNtB5_16RelationshipTypeNtNtCsezyhsC6CBT9_4core3fmt7Display3fmt
FNDA:23,_RNvXs2_NtNtCsfSTr4xOiCzA_5tally5model7findingNtB5_16RelationshipTypeNtNtNtCsezyhsC6CBT9_4core3str6traits7FromStr8from_str
FNDA:274,_RNvXs_NtNtCsfSTr4xOiCzA_5tally5model7findingNtB4_8SeverityNtNtCsezyhsC6CBT9_4core3fmt7Display3fmt
FNDA:0,_RNvMNtNtCsiNX1mHs4n5r_5tally5model7findingNtB2_8Severity14to_sarif_level
FNDA:0,_RNvXs1_NtNtCsiNX1mHs4n5r_5tally5model7findingNtB5_16RelationshipTypeNtNtCsezyhsC6CBT9_4core3fmt7Display3fmt
FNDA:0,_RNvXs2_NtNtCsiNX1mHs4n5r_5tally5model7findingNtB5_16RelationshipTypeNtNtNtCsezyhsC6CBT9_4core3str6traits7FromStr8from_str
FNDA:0,_RNvMNtNtCsiNX1mHs4n5r_5tally5model7findingNtB2_8Severity12short_prefix
FNDA:0,_RNvXs0_NtNtCsiNX1mHs4n5r_5tally5model7findingNtB5_8SeverityNtNtNtCsezyhsC6CBT9_4core3str6traits7FromStr8from_str
FNDA:0,_RNvXs_NtNtCsiNX1mHs4n5r_5tally5model7findingNtB4_8SeverityNtNtCsezyhsC6CBT9_4core3fmt7Display3fmt
FNF:6
FNH:6
DA:112,57
DA:113,57
DA:114,25
DA:115,19
DA:116,10
DA:117,3
DA:119,57
DA:123,6
DA:124,6
DA:125,2
DA:126,2
DA:127,1
DA:128,1
DA:130,6
DA:134,274
DA:135,274
DA:136,64
DA:137,81
DA:138,53
DA:139,76
DA:141,274
DA:147,344
DA:148,344
DA:149,344
DA:150,257
DA:151,151
DA:152,85
DA:153,7
DA:154,7
DA:155,7
DA:157,344
DA:200,6
DA:201,6
DA:202,1
DA:203,1
DA:204,1
DA:205,1
DA:206,1
DA:207,1
DA:209,6
DA:215,23
DA:216,23
DA:217,23
DA:218,20
DA:219,15
DA:220,11
DA:221,9
DA:222,4
DA:224,5
DA:225,3
DA:226,3
DA:227,3
DA:228,3
DA:230,23
BRF:0
BRH:0
LF:54
LH:54
end_of_record
SF:/Users/jmagady/Dev/tally/src/model/identity.rs
FN:69,_RNvMNtNtCsfSTr4xOiCzA_5tally5model8identityNtB2_23FindingIdentityResolver13from_findings
FN:96,_RNvMNtNtCsfSTr4xOiCzA_5tally5model8identityNtB2_23FindingIdentityResolver7resolve
FN:35,_RNvNtNtCsfSTr4xOiCzA_5tally5model8identity16primary_location
FN:19,_RNvNtNtCsfSTr4xOiCzA_5tally5model8identity19compute_fingerprint
FN:38,_RNCNvNtNtCsfSTr4xOiCzA_5tally5model8identity16primary_location0B7_
FN:39,_RNCNvNtNtCsfSTr4xOiCzA_5tally5model8identity16primary_locations_0B7_
FN:69,_RNvMNtNtCsiNX1mHs4n5r_5tally5model8identityNtB2_23FindingIdentityResolver13from_findings
FN:96,_RNvMNtNtCsiNX1mHs4n5r_5tally5model8identityNtB2_23FindingIdentityResolver7resolve
FN:35,_RNvNtNtCsiNX1mHs4n5r_5tally5model8identity16primary_location
FN:19,_RNvNtNtCsiNX1mHs4n5r_5tally5model8identity19compute_fingerprint
FN:38,_RNCNvNtNtCsiNX1mHs4n5r_5tally5model8identity16primary_location0B7_
FN:39,_RNCNvNtNtCsiNX1mHs4n5r_5tally5model8identity16primary_locations_0B7_
FNDA:70,_RNvMNtNtCsfSTr4xOiCzA_5tally5model8identityNtB2_23FindingIdentityResolver13from_findings
FNDA:73,_RNvMNtNtCsfSTr4xOiCzA_5tally5model8identityNtB2_23FindingIdentityResolver7resolve
FNDA:33,_RNvNtNtCsfSTr4xOiCzA_5tally5model8identity16primary_location
FNDA:360,_RNvNtNtCsfSTr4xOiCzA_5tally5model8identity19compute_fingerprint
FNDA:33,_RNCNvNtNtCsfSTr4xOiCzA_5tally5model8identity16primary_location0B7_
FNDA:2,_RNCNvNtNtCsfSTr4xOiCzA_5tally5model8identity16primary_locations_0B7_
FNDA:0,_RNvMNtNtCsiNX1mHs4n5r_5tally5model8identityNtB2_23FindingIdentityResolver13from_findings
FNDA:0,_RNvMNtNtCsiNX1mHs4n5r_5tally5model8identityNtB2_23FindingIdentityResolver7resolve
FNDA:0,_RNvNtNtCsiNX1mHs4n5r_5tally5model8identity16primary_location
FNDA:0,_RNvNtNtCsiNX1mHs4n5r_5tally5model8identity19compute_fingerprint
FNDA:0,_RNCNvNtNtCsiNX1mHs4n5r_5tally5model8identity16primary_location0B7_
FNDA:0,_RNCNvNtNtCsiNX1mHs4n5r_5tally5model8identity16primary_locations_0B7_
FNF:6
FNH:6
DA:19,360
DA:20,360
DA:24,360
DA:25,360
DA:26,360
DA:27,360
DA:28,360
DA:35,33
DA:36,33
DA:37,33
DA:38,33
DA:39,33
DA:40,33
DA:69,70
DA:70,70
DA:71,70
DA:73,70
DA:74,30
DA:76,30
DA:77,30
DA:78,30
DA:79,30
DA:80,30
DA:81,30
DA:82,30
DA:85,70
DA:86,70
DA:87,70
DA:88,70
DA:89,70
DA:96,73
DA:97,73
DA:98,73
DA:99,73
DA:100,73
DA:101,73
DA:102,73
DA:103,73
DA:105,73
DA:106,4
DA:107,69
DA:110,69
DA:111,69
DA:112,7
DA:113,7
DA:114,7
DA:115,4
DA:116,3
DA:118,62
DA:121,65
DA:122,73
BRF:0
BRH:0
LF:53
LH:53
end_of_record
SF:/Users/jmagady/Dev/tally/src/model/state_machine.rs
FN:61,_RNvMNtNtCsfSTr4xOiCzA_5tally5model13state_machineNtB2_14LifecycleState17can_transition_to
FN:33,_RNvMNtNtCsfSTr4xOiCzA_5tally5model13state_machineNtB2_14LifecycleState19allowed_transitions
FN:67,_RNvMNtNtCsfSTr4xOiCzA_5tally5model13state_machineNtB2_14LifecycleState3all
FN:103,_RNvXs0_NtNtCsfSTr4xOiCzA_5tally5model13state_machineNtB5_14LifecycleStateNtNtNtCsezyhsC6CBT9_4core3str6traits7FromStr8from_str
FN:84,_RNvXs_NtNtCsfSTr4xOiCzA_5tally5model13state_machineNtB4_14LifecycleStateNtNtCsezyhsC6CBT9_4core3fmt7Display3fmt
FN:67,_RNvMNtNtCsiNX1mHs4n5r_5tally5model13state_machineNtB2_14LifecycleState3all
FN:61,_RNvMNtNtCsiNX1mHs4n5r_5tally5model13state_machineNtB2_14LifecycleState17can_transition_to
FN:33,_RNvMNtNtCsiNX1mHs4n5r_5tally5model13state_machineNtB2_14LifecycleState19allowed_transitions
FN:103,_RNvXs0_NtNtCsiNX1mHs4n5r_5tally5model13state_machineNtB5_14LifecycleStateNtNtNtCsezyhsC6CBT9_4core3str6traits7FromStr8from_str
FN:84,_RNvXs_NtNtCsiNX1mHs4n5r_5tally5model13state_machineNtB4_14LifecycleStateNtNtCsezyhsC6CBT9_4core3fmt7Display3fmt
FNDA:68,_RNvMNtNtCsfSTr4xOiCzA_5tally5model13state_machineNtB2_14LifecycleState17can_transition_to
FNDA:71,_RNvMNtNtCsfSTr4xOiCzA_5tally5model13state_machineNtB2_14LifecycleState19allowed_transitions
FNDA:5,_RNvMNtNtCsfSTr4xOiCzA_5tally5model13state_machineNtB2_14LifecycleState3all
FNDA:289,_RNvXs0_NtNtCsfSTr4xOiCzA_5tally5model13state_machineNtB5_14LifecycleStateNtNtNtCsezyhsC6CBT9_4core3str6traits7FromStr8from_str
FNDA:296,_RNvXs_NtNtCsfSTr4xOiCzA_5tally5model13state_machineNtB4_14LifecycleStateNtNtCsezyhsC6CBT9_4core3fmt7Display3fmt
FNDA:0,_RNvMNtNtCsiNX1mHs4n5r_5tally5model13state_machineNtB2_14LifecycleState3all
FNDA:0,_RNvMNtNtCsiNX1mHs4n5r_5tally5model13state_machineNtB2_14LifecycleState17can_transition_to
FNDA:0,_RNvMNtNtCsiNX1mHs4n5r_5tally5model13state_machineNtB2_14LifecycleState19allowed_transitions
FNDA:0,_RNvXs0_NtNtCsiNX1mHs4n5r_5tally5model13state_machineNtB5_14LifecycleStateNtNtNtCsezyhsC6CBT9_4core3str6traits7FromStr8from_str
FNDA:0,_RNvXs_NtNtCsiNX1mHs4n5r_5tally5model13state_machineNtB4_14LifecycleStateNtNtCsezyhsC6CBT9_4core3fmt7Display3fmt
FNF:5
FNH:5
DA:33,71
DA:34,71
DA:35,24
DA:36,24
DA:37,24
DA:38,24
DA:39,24
DA:40,24
DA:41,24
DA:42,7
DA:43,7
DA:44,7
DA:45,7
DA:46,7
DA:47,7
DA:48,6
DA:49,6
DA:50,3
DA:51,3
DA:52,3
DA:53,3
DA:54,4
DA:55,12
DA:57,71
DA:61,68
DA:62,68
DA:63,68
DA:67,5
DA:68,5
DA:69,5
DA:70,5
DA:71,5
DA:72,5
DA:73,5
DA:74,5
DA:75,5
DA:76,5
DA:77,5
DA:78,5
DA:79,5
DA:80,5
DA:84,296
DA:85,296
DA:86,37
DA:87,32
DA:88,32
DA:89,28
DA:90,26
DA:91,21
DA:92,25
DA:93,29
DA:94,32
DA:95,34
DA:97,296
DA:103,289
DA:104,289
DA:105,289
DA:106,258
DA:107,228
DA:108,195
DA:109,169
DA:110,142
DA:111,119
DA:112,95
DA:113,68
DA:114,37
DA:115,5
DA:116,5
DA:117,5
DA:118,5
DA:120,289
BRF:0
BRH:0
LF:71
LH:71
end_of_record
SF:/Users/jmagady/Dev/tally/src/session.rs
FN:69,_RNvMNtCsfSTr4xOiCzA_5tally7sessionNtB2_15SessionIdMapper10resolve_id
FN:80,_RNvMNtCsfSTr4xOiCzA_5tally7sessionNtB2_15SessionIdMapper3len
FN:27,_RNvMNtCsfSTr4xOiCzA_5tally7sessionNtB2_15SessionIdMapper3new
FN:38,_RNvMNtCsfSTr4xOiCzA_5tally7sessionNtB2_15SessionIdMapper6assign
FN:55,_RNvMNtCsfSTr4xOiCzA_5tally7sessionNtB2_15SessionIdMapper7resolve
FN:86,_RNvMNtCsfSTr4xOiCzA_5tally7sessionNtB2_15SessionIdMapper8is_empty
FN:61,_RNvMNtCsfSTr4xOiCzA_5tally7sessionNtB2_15SessionIdMapper8short_id
FN:92,_RNvXs_NtCsfSTr4xOiCzA_5tally7sessionNtB4_15SessionIdMapperNtNtCsezyhsC6CBT9_4core7default7Default7default
FN:69,_RNvMNtCsiNX1mHs4n5r_5tally7sessionNtB2_15SessionIdMapper10resolve_id
FN:80,_RNvMNtCsiNX1mHs4n5r_5tally7sessionNtB2_15SessionIdMapper3len
FN:86,_RNvMNtCsiNX1mHs4n5r_5tally7sessionNtB2_15SessionIdMapper8is_empty
FN:61,_RNvMNtCsiNX1mHs4n5r_5tally7sessionNtB2_15SessionIdMapper8short_id
FN:92,_RNvXs_NtCsiNX1mHs4n5r_5tally7sessionNtB4_15SessionIdMapperNtNtCsezyhsC6CBT9_4core7default7Default7default
FN:27,_RNvMNtCsiNX1mHs4n5r_5tally7sessionNtB2_15SessionIdMapper3new
FN:38,_RNvMNtCsiNX1mHs4n5r_5tally7sessionNtB2_15SessionIdMapper6assign
FN:55,_RNvMNtCsiNX1mHs4n5r_5tally7sessionNtB2_15SessionIdMapper7resolve
FNDA:3,_RNvMNtCsfSTr4xOiCzA_5tally7sessionNtB2_15SessionIdMapper10resolve_id
FNDA:3,_RNvMNtCsfSTr4xOiCzA_5tally7sessionNtB2_15SessionIdMapper3len
FNDA:47,_RNvMNtCsfSTr4xOiCzA_5tally7sessionNtB2_15SessionIdMapper3new
FNDA:54,_RNvMNtCsfSTr4xOiCzA_5tally7sessionNtB2_15SessionIdMapper6assign
FNDA:12,_RNvMNtCsfSTr4xOiCzA_5tally7sessionNtB2_15SessionIdMapper7resolve
FNDA:3,_RNvMNtCsfSTr4xOiCzA_5tally7sessionNtB2_15SessionIdMapper8is_empty
FNDA:32,_RNvMNtCsfSTr4xOiCzA_5tally7sessionNtB2_15SessionIdMapper8short_id
FNDA:1,_RNvXs_NtCsfSTr4xOiCzA_5tally7sessionNtB4_15SessionIdMapperNtNtCsezyhsC6CBT9_4core7default7Default7default
FNDA:0,_RNvMNtCsiNX1mHs4n5r_5tally7sessionNtB2_15SessionIdMapper10resolve_id
FNDA:0,_RNvMNtCsiNX1mHs4n5r_5tally7sessionNtB2_15SessionIdMapper3len
FNDA:0,_RNvMNtCsiNX1mHs4n5r_5tally7sessionNtB2_15SessionIdMapper8is_empty
FNDA:0,_RNvMNtCsiNX1mHs4n5r_5tally7sessionNtB2_15SessionIdMapper8short_id
FNDA:0,_RNvXs_NtCsiNX1mHs4n5r_5tally7sessionNtB4_15SessionIdMapperNtNtCsezyhsC6CBT9_4core7default7Default7default
FNDA:0,_RNvMNtCsiNX1mHs4n5r_5tally7sessionNtB2_15SessionIdMapper3new
FNDA:0,_RNvMNtCsiNX1mHs4n5r_5tally7sessionNtB2_15SessionIdMapper6assign
FNDA:0,_RNvMNtCsiNX1mHs4n5r_5tally7sessionNtB2_15SessionIdMapper7resolve
FNF:8
FNH:8
DA:27,47
DA:28,47
DA:29,47
DA:30,47
DA:31,47
DA:32,47
DA:33,47
DA:38,54
DA:39,54
DA:40,1
DA:41,53
DA:43,53
DA:44,53
DA:45,53
DA:46,53
DA:48,53
DA:49,53
DA:50,53
DA:51,54
DA:55,12
DA:56,12
DA:57,12
DA:61,32
DA:62,32
DA:63,32
DA:69,3
DA:71,3
DA:72,1
DA:73,2
DA:75,2
DA:76,3
DA:80,3
DA:81,3
DA:82,3
DA:86,3
DA:87,3
DA:88,3
DA:92,1
DA:93,1
DA:94,1
BRF:0
BRH:0
LF:40
LH:40
end_of_record
SF:/Users/jmagady/Dev/tally/src/storage/git_store.rs
FN:421,_RNvMNtNtCsfSTr4xOiCzA_5tally7storage9git_storeNtB2_16GitFindingsStore10branch_tip
FN:248,_RNvMNtNtCsfSTr4xOiCzA_5tally7storage9git_storeNtB2_16GitFindingsStore11git_context
FN:461,_RNvMNtNtCsfSTr4xOiCzA_5tally7storage9git_storeNtB2_16GitFindingsStore11upsert_file
FN:159,_RNvMNtNtCsfSTr4xOiCzA_5tally7storage9git_storeNtB2_16GitFindingsStore12load_finding
FN:142,_RNvMNtNtCsfSTr4xOiCzA_5tally7storage9git_storeNtB2_16GitFindingsStore12save_finding
FN:274,_RNvMNtNtCsfSTr4xOiCzA_5tally7storage9git_storeNtB2_16GitFindingsStore13branch_exists
FN:209,_RNvMNtNtCsfSTr4xOiCzA_5tally7storage9git_storeNtB2_16GitFindingsStore13rebuild_index
FN:442,_RNvMNtNtCsfSTr4xOiCzA_5tally7storage9git_storeNtB2_16GitFindingsStore14list_directory
FN:72,_RNvMNtNtCsfSTr4xOiCzA_5tally7storage9git_storeNtB2_16GitFindingsStore4init
FN:56,_RNvMNtNtCsfSTr4xOiCzA_5tally7storage9git_storeNtB2_16GitFindingsStore4open
FN:291,_RNvMNtNtCsfSTr4xOiCzA_5tally7storage9git_storeNtB2_16GitFindingsStore4sync
FN:174,_RNvMNtNtCsfSTr4xOiCzA_5tally7storage9git_storeNtB2_16GitFindingsStore8load_all
FN:433,_RNvMNtNtCsfSTr4xOiCzA_5tally7storage9git_storeNtB2_16GitFindingsStore9read_file
FN:501,_RNvMNtNtCsfSTr4xOiCzA_5tally7storage9git_storeNtB2_16GitFindingsStore9signature
FN:215,_RNCNCNvMNtNtCsfSTr4xOiCzA_5tally7storage9git_storeNtB6_16GitFindingsStore13rebuild_index00Ba_
FN:426,_RNCNvMNtNtCsfSTr4xOiCzA_5tally7storage9git_storeNtB4_16GitFindingsStore10branch_tip0B8_
FN:253,_RNCNvMNtNtCsfSTr4xOiCzA_5tally7storage9git_storeNtB4_16GitFindingsStore11git_context0B8_
FN:266,_RNCNvMNtNtCsfSTr4xOiCzA_5tally7storage9git_storeNtB4_16GitFindingsStore11git_contexts0_0B8_
FN:267,_RNCNvMNtNtCsfSTr4xOiCzA_5tally7storage9git_storeNtB4_16GitFindingsStore11git_contexts1_0B8_
FN:260,_RNCNvMNtNtCsfSTr4xOiCzA_5tally7storage9git_storeNtB4_16GitFindingsStore11git_contexts_0B8_
FN:214,_RNCNvMNtNtCsfSTr4xOiCzA_5tally7storage9git_storeNtB4_16GitFindingsStore13rebuild_index0B8_
FN:179,_RNCNvMNtNtCsfSTr4xOiCzA_5tally7storage9git_storeNtB4_16GitFindingsStore8load_all0B8_
FN:505,_RNCNvMNtNtCsfSTr4xOiCzA_5tally7storage9git_storeNtB4_16GitFindingsStore9signature0B8_
FN:215,_RNCNCNvMNtNtCsiNX1mHs4n5r_5tally7storage9git_storeNtB6_16GitFindingsStore13rebuild_index00Ba_
FN:214,_RNCNvMNtNtCsiNX1mHs4n5r_5tally7storage9git_storeNtB4_16GitFindingsStore13rebuild_index0B8_
FN:274,_RNvMNtNtCsiNX1mHs4n5r_5tally7storage9git_storeNtB2_16GitFindingsStore13branch_exists
FN:209,_RNvMNtNtCsiNX1mHs4n5r_5tally7storage9git_storeNtB2_16GitFindingsStore13rebuild_index
FN:72,_RNvMNtNtCsiNX1mHs4n5r_5tally7storage9git_storeNtB2_16GitFindingsStore4init
FN:291,_RNvMNtNtCsiNX1mHs4n5r_5tally7storage9git_storeNtB2_16GitFindingsStore4sync
FN:421,_RNvMNtNtCsiNX1mHs4n5r_5tally7storage9git_storeNtB2_16GitFindingsStore10branch_tip
FN:248,_RNvMNtNtCsiNX1mHs4n5r_5tally7storage9git_storeNtB2_16GitFindingsStore11git_context
FN:461,_RNvMNtNtCsiNX1mHs4n5r_5tally7storage9git_storeNtB2_16GitFindingsStore11upsert_file
FN:159,_RNvMNtNtCsiNX1mHs4n5r_5tally7storage9git_storeNtB2_16GitFindingsStore12load_finding
FN:142,_RNvMNtNtCsiNX1mHs4n5r_5tally7storage9git_storeNtB2_16GitFindingsStore12save_finding
FN:442,_RNvMNtNtCsiNX1mHs4n5r_5tally7storage9git_storeNtB2_16GitFindingsStore14list_directory
FN:56,_RNvMNtNtCsiNX1mHs4n5r_5tally7storage9git_storeNtB2_16GitFindingsStore4open
FN:174,_RNvMNtNtCsiNX1mHs4n5r_5tally7storage9git_storeNtB2_16GitFindingsStore8load_all
FN:433,_RNvMNtNtCsiNX1mHs4n5r_5tally7storage9git_storeNtB2_16GitFindingsStore9read_file
FN:501,_RNvMNtNtCsiNX1mHs4n5r_5tally7storage9git_storeNtB2_16GitFindingsStore9signature
FN:426,_RNCNvMNtNtCsiNX1mHs4n5r_5tally7storage9git_storeNtB4_16GitFindingsStore10branch_tip0B8_
FN:253,_RNCNvMNtNtCsiNX1mHs4n5r_5tally7storage9git_storeNtB4_16GitFindingsStore11git_context0B8_
FN:266,_RNCNvMNtNtCsiNX1mHs4n5r_5tally7storage9git_storeNtB4_16GitFindingsStore11git_contexts0_0B8_
FN:267,_RNCNvMNtNtCsiNX1mHs4n5r_5tally7storage9git_storeNtB4_16GitFindingsStore11git_contexts1_0B8_
FN:260,_RNCNvMNtNtCsiNX1mHs4n5r_5tally7storage9git_storeNtB4_16GitFindingsStore11git_contexts_0B8_
FN:179,_RNCNvMNtNtCsiNX1mHs4n5r_5tally7storage9git_storeNtB4_16GitFindingsStore8load_all0B8_
FN:505,_RNCNvMNtNtCsiNX1mHs4n5r_5tally7storage9git_storeNtB4_16GitFindingsStore9signature0B8_
FNDA:372,_RNvMNtNtCsfSTr4xOiCzA_5tally7storage9git_storeNtB2_16GitFindingsStore10branch_tip
FNDA:57,_RNvMNtNtCsfSTr4xOiCzA_5tally7storage9git_storeNtB2_16GitFindingsStore11git_context
FNDA:123,_RNvMNtNtCsfSTr4xOiCzA_5tally7storage9git_storeNtB2_16GitFindingsStore11upsert_file
FNDA:35,_RNvMNtNtCsfSTr4xOiCzA_5tally7storage9git_storeNtB2_16GitFindingsStore12load_finding
FNDA:118,_RNvMNtNtCsfSTr4xOiCzA_5tally7storage9git_storeNtB2_16GitFindingsStore12save_finding
FNDA:97,_RNvMNtNtCsfSTr4xOiCzA_5tally7storage9git_storeNtB2_16GitFindingsStore13branch_exists
FNDA:5,_RNvMNtNtCsfSTr4xOiCzA_5tally7storage9git_storeNtB2_16GitFindingsStore13rebuild_index
FNDA:110,_RNvMNtNtCsfSTr4xOiCzA_5tally7storage9git_storeNtB2_16GitFindingsStore14list_directory
FNDA:82,_RNvMNtNtCsfSTr4xOiCzA_5tally7storage9git_storeNtB2_16GitFindingsStore4init
FNDA:211,_RNvMNtNtCsfSTr4xOiCzA_5tally7storage9git_storeNtB2_16GitFindingsStore4open
FNDA:12,_RNvMNtNtCsfSTr4xOiCzA_5tally7storage9git_storeNtB2_16GitFindingsStore4sync
FNDA:110,_RNvMNtNtCsfSTr4xOiCzA_5tally7storage9git_storeNtB2_16GitFindingsStore8load_all
FNDA:130,_RNvMNtNtCsfSTr4xOiCzA_5tally7storage9git_storeNtB2_16GitFindingsStore9read_file
FNDA:202,_RNvMNtNtCsfSTr4xOiCzA_5tally7storage9git_storeNtB2_16GitFindingsStore9signature
FNDA:10,_RNCNCNvMNtNtCsfSTr4xOiCzA_5tally7storage9git_storeNtB6_16GitFindingsStore13rebuild_index00Ba_
FNDA:4,_RNCNvMNtNtCsfSTr4xOiCzA_5tally7storage9git_storeNtB4_16GitFindingsStore10branch_tip0B8_
FNDA:1,_RNCNvMNtNtCsfSTr4xOiCzA_5tally7storage9git_storeNtB4_16GitFindingsStore11git_context0B8_
FNDA:57,_RNCNvMNtNtCsfSTr4xOiCzA_5tally7storage9git_storeNtB4_16GitFindingsStore11git_contexts0_0B8_
FNDA:57,_RNCNvMNtNtCsfSTr4xOiCzA_5tally7storage9git_storeNtB4_16GitFindingsStore11git_contexts1_0B8_
FNDA:57,_RNCNvMNtNtCsfSTr4xOiCzA_5tally7storage9git_storeNtB4_16GitFindingsStore11git_contexts_0B8_
FNDA:10,_RNCNvMNtNtCsfSTr4xOiCzA_5tally7storage9git_storeNtB4_16GitFindingsStore13rebuild_index0B8_
FNDA:95,_RNCNvMNtNtCsfSTr4xOiCzA_5tally7storage9git_storeNtB4_16GitFindingsStore8load_all0B8_
FNDA:0,_RNCNvMNtNtCsfSTr4xOiCzA_5tally7storage9git_storeNtB4_16GitFindingsStore9signature0B8_
FNDA:0,_RNCNCNvMNtNtCsiNX1mHs4n5r_5tally7storage9git_storeNtB6_16GitFindingsStore13rebuild_index00Ba_
FNDA:0,_RNCNvMNtNtCsiNX1mHs4n5r_5tally7storage9git_storeNtB4_16GitFindingsStore13rebuild_index0B8_
FNDA:0,_RNvMNtNtCsiNX1mHs4n5r_5tally7storage9git_storeNtB2_16GitFindingsStore13branch_exists
FNDA:0,_RNvMNtNtCsiNX1mHs4n5r_5tally7storage9git_storeNtB2_16GitFindingsStore13rebuild_index
FNDA:0,_RNvMNtNtCsiNX1mHs4n5r_5tally7storage9git_storeNtB2_16GitFindingsStore4init
FNDA:0,_RNvMNtNtCsiNX1mHs4n5r_5tally7storage9git_storeNtB2_16GitFindingsStore4sync
FNDA:0,_RNvMNtNtCsiNX1mHs4n5r_5tally7storage9git_storeNtB2_16GitFindingsStore10branch_tip
FNDA:0,_RNvMNtNtCsiNX1mHs4n5r_5tally7storage9git_storeNtB2_16GitFindingsStore11git_context
FNDA:0,_RNvMNtNtCsiNX1mHs4n5r_5tally7storage9git_storeNtB2_16GitFindingsStore11upsert_file
FNDA:0,_RNvMNtNtCsiNX1mHs4n5r_5tally7storage9git_storeNtB2_16GitFindingsStore12load_finding
FNDA:0,_RNvMNtNtCsiNX1mHs4n5r_5tally7storage9git_storeNtB2_16GitFindingsStore12save_finding
FNDA:0,_RNvMNtNtCsiNX1mHs4n5r_5tally7storage9git_storeNtB2_16GitFindingsStore14list_directory
FNDA:0,_RNvMNtNtCsiNX1mHs4n5r_5tally7storage9git_storeNtB2_16GitFindingsStore4open
FNDA:0,_RNvMNtNtCsiNX1mHs4n5r_5tally7storage9git_storeNtB2_16GitFindingsStore8load_all
FNDA:0,_RNvMNtNtCsiNX1mHs4n5r_5tally7storage9git_storeNtB2_16GitFindingsStore9read_file
FNDA:0,_RNvMNtNtCsiNX1mHs4n5r_5tally7storage9git_storeNtB2_16GitFindingsStore9signature
FNDA:0,_RNCNvMNtNtCsiNX1mHs4n5r_5tally7storage9git_storeNtB4_16GitFindingsStore10branch_tip0B8_
FNDA:0,_RNCNvMNtNtCsiNX1mHs4n5r_5tally7storage9git_storeNtB4_16GitFindingsStore11git_context0B8_
FNDA:0,_RNCNvMNtNtCsiNX1mHs4n5r_5tally7storage9git_storeNtB4_16GitFindingsStore11git_contexts0_0B8_
FNDA:0,_RNCNvMNtNtCsiNX1mHs4n5r_5tally7storage9git_storeNtB4_16GitFindingsStore11git_contexts1_0B8_
FNDA:0,_RNCNvMNtNtCsiNX1mHs4n5r_5tally7storage9git_storeNtB4_16GitFindingsStore11git_contexts_0B8_
FNDA:0,_RNCNvMNtNtCsiNX1mHs4n5r_5tally7storage9git_storeNtB4_16GitFindingsStore8load_all0B8_
FNDA:0,_RNCNvMNtNtCsiNX1mHs4n5r_5tally7storage9git_storeNtB4_16GitFindingsStore9signature0B8_
FNF:23
FNH:22
DA:56,211
DA:57,211
DA:58,209
DA:59,209
DA:60,209
DA:61,209
DA:62,211
DA:72,82
DA:74,82
DA:75,2
DA:76,80
DA:78,80
DA:79,80
DA:80,80
DA:81,80
DA:84,80
DA:85,80
DA:86,80
DA:87,80
DA:88,0
DA:91,80
DA:94,80
DA:97,80
DA:98,80
DA:99,80
DA:100,80
DA:101,80
DA:103,80
DA:104,80
DA:108,80
DA:109,80
DA:111,80
DA:112,80
DA:114,80
DA:117,80
DA:118,80
DA:119,80
DA:120,80
DA:121,80
DA:122,80
DA:123,80
DA:124,0
DA:127,80
DA:128,80
DA:130,80
DA:131,82
DA:142,118
DA:143,118
DA:144,118
DA:146,118
DA:147,118
DA:148,118
DA:149,118
DA:151,118
DA:159,35
DA:160,35
DA:161,35
DA:162,34
DA:163,34
DA:164,34
DA:165,35
DA:174,110
DA:175,110
DA:176,108
DA:178,203
DA:179,203
DA:180,108
DA:181,95
DA:183,95
DA:184,95
DA:185,95
DA:186,94
DA:187,1
DA:188,1
DA:189,1
DA:191,0
DA:192,0
DA:193,0
DA:197,108
DA:198,110
DA:209,5
DA:210,5
DA:212,5
DA:213,5
DA:214,10
DA:215,10
DA:216,10
DA:217,10
DA:218,10
DA:219,10
DA:220,10
DA:221,10
DA:222,10
DA:223,10
DA:224,10
DA:225,10
DA:227,10
DA:228,5
DA:230,5
DA:231,5
DA:232,5
DA:233,5
DA:236,5
DA:238,5
DA:239,5
DA:248,57
DA:249,57
DA:250,57
DA:251,57
DA:252,57
DA:253,57
DA:254,57
DA:256,57
DA:257,57
DA:258,57
DA:259,57
DA:260,57
DA:262,57
DA:263,57
DA:264,57
DA:265,57
DA:266,57
DA:267,57
DA:269,57
DA:270,57
DA:274,97
DA:275,97
DA:276,97
DA:277,97
DA:278,97
DA:291,12
DA:292,12
DA:293,2
DA:294,2
DA:295,2
DA:296,10
DA:298,10
DA:299,10
DA:302,10
DA:303,9
DA:306,9
DA:307,5
DA:308,4
DA:311,9
DA:314,9
DA:315,9
DA:316,5
DA:318,5
DA:319,5
DA:320,5
DA:323,1
DA:324,1
DA:325,1
DA:327,1
DA:328,0
DA:329,1
DA:332,1
DA:334,1
DA:335,4
DA:336,4
DA:337,4
DA:338,3
DA:339,3
DA:340,3
DA:341,3
DA:343,1
DA:346,1
DA:347,1
DA:348,1
DA:349,1
DA:351,1
DA:352,1
DA:353,1
DA:355,1
DA:356,1
DA:357,1
DA:359,1
DA:360,0
DA:361,0
DA:362,0
DA:363,0
DA:364,0
DA:365,1
DA:367,1
DA:368,1
DA:369,1
DA:371,1
DA:372,1
DA:373,1
DA:374,1
DA:375,1
DA:376,1
DA:377,1
DA:378,0
DA:379,1
DA:380,1
DA:382,0
DA:383,4
DA:386,9
DA:387,9
DA:388,9
DA:390,9
DA:391,9
DA:392,9
DA:393,9
DA:394,9
DA:396,0
DA:397,0
DA:398,0
DA:401,0
DA:403,0
DA:405,0
DA:408,0
DA:409,0
DA:411,0
DA:415,0
DA:416,12
DA:421,372
DA:422,372
DA:423,372
DA:424,372
DA:425,372
DA:426,4
DA:427,4
DA:428,368
DA:429,368
DA:430,372
DA:433,130
DA:434,130
DA:435,130
DA:436,130
DA:437,129
DA:438,129
DA:439,130
DA:442,110
DA:443,110
DA:444,108
DA:445,108
DA:446,108
DA:448,108
DA:449,203
DA:450,203
DA:451,203
DA:452,203
DA:454,108
DA:455,110
DA:461,123
DA:462,123
DA:464,123
DA:465,121
DA:467,121
DA:468,121
DA:469,121
DA:470,121
DA:472,121
DA:473,121
DA:476,121
DA:477,121
DA:478,121
DA:479,121
DA:481,121
DA:482,0
DA:483,0
DA:484,0
DA:485,0
DA:486,0
DA:487,0
DA:488,0
DA:489,0
DA:490,0
DA:491,0
DA:492,0
DA:493,0
DA:497,0
DA:498,123
DA:501,202
DA:503,202
DA:504,202
DA:505,202
DA:506,202
DA:507,202
BRF:0
BRH:0
LF:290
LH:253
end_of_record